
Final_Project.elf:     file format elf32-avr

Sections:
Idx Name          Size      VMA       LMA       File off  Algn
  0 .text         00002504  00000000  00000000  00000094  2**1
                  CONTENTS, ALLOC, LOAD, READONLY, CODE
  1 .data         0000004a  00800060  00002504  00002598  2**0
                  CONTENTS, ALLOC, LOAD, DATA
  2 .bss          00000008  008000aa  008000aa  000025e2  2**0
                  ALLOC
  3 .stab         00003f78  00000000  00000000  000025e4  2**2
                  CONTENTS, READONLY, DEBUGGING
  4 .stabstr      00001194  00000000  00000000  0000655c  2**0
                  CONTENTS, READONLY, DEBUGGING
  5 .comment      00000026  00000000  00000000  000076f0  2**0
                  CONTENTS, READONLY
  6 .note.gnu.avr.deviceinfo 0000003c  00000000  00000000  00007718  2**2
                  CONTENTS, READONLY, OCTETS
  7 .debug_aranges 000000a0  00000000  00000000  00007758  2**3
                  CONTENTS, READONLY, DEBUGGING, OCTETS
  8 .debug_info   000005a4  00000000  00000000  000077f8  2**0
                  CONTENTS, READONLY, DEBUGGING, OCTETS
  9 .debug_abbrev 00000507  00000000  00000000  00007d9c  2**0
                  CONTENTS, READONLY, DEBUGGING, OCTETS
 10 .debug_line   000002da  00000000  00000000  000082a3  2**0
                  CONTENTS, READONLY, DEBUGGING, OCTETS
 11 .debug_str    0000021c  00000000  00000000  0000857d  2**0
                  CONTENTS, READONLY, DEBUGGING, OCTETS

Disassembly of section .text:

00000000 <__vectors>:
       0:	0c 94 2a 00 	jmp	0x54	; 0x54 <__ctors_end>
       4:	0c 94 ef 0e 	jmp	0x1dde	; 0x1dde <__vector_1>
       8:	0c 94 22 10 	jmp	0x2044	; 0x2044 <__vector_2>
       c:	0c 94 47 00 	jmp	0x8e	; 0x8e <__bad_interrupt>
      10:	0c 94 47 00 	jmp	0x8e	; 0x8e <__bad_interrupt>
      14:	0c 94 47 00 	jmp	0x8e	; 0x8e <__bad_interrupt>
      18:	0c 94 47 00 	jmp	0x8e	; 0x8e <__bad_interrupt>
      1c:	0c 94 47 00 	jmp	0x8e	; 0x8e <__bad_interrupt>
      20:	0c 94 47 00 	jmp	0x8e	; 0x8e <__bad_interrupt>
      24:	0c 94 47 00 	jmp	0x8e	; 0x8e <__bad_interrupt>
      28:	0c 94 47 00 	jmp	0x8e	; 0x8e <__bad_interrupt>
      2c:	0c 94 47 00 	jmp	0x8e	; 0x8e <__bad_interrupt>
      30:	0c 94 47 00 	jmp	0x8e	; 0x8e <__bad_interrupt>
      34:	0c 94 47 00 	jmp	0x8e	; 0x8e <__bad_interrupt>
      38:	0c 94 47 00 	jmp	0x8e	; 0x8e <__bad_interrupt>
      3c:	0c 94 47 00 	jmp	0x8e	; 0x8e <__bad_interrupt>
      40:	0c 94 47 00 	jmp	0x8e	; 0x8e <__bad_interrupt>
      44:	0c 94 47 00 	jmp	0x8e	; 0x8e <__bad_interrupt>
      48:	0c 94 47 00 	jmp	0x8e	; 0x8e <__bad_interrupt>
      4c:	0c 94 47 00 	jmp	0x8e	; 0x8e <__bad_interrupt>
      50:	0c 94 47 00 	jmp	0x8e	; 0x8e <__bad_interrupt>

00000054 <__ctors_end>:
      54:	11 24       	eor	r1, r1
      56:	1f be       	out	0x3f, r1	; 63
      58:	cf e5       	ldi	r28, 0x5F	; 95
      5a:	d8 e0       	ldi	r29, 0x08	; 8
      5c:	de bf       	out	0x3e, r29	; 62
      5e:	cd bf       	out	0x3d, r28	; 61

00000060 <__do_copy_data>:
      60:	10 e0       	ldi	r17, 0x00	; 0
      62:	a0 e6       	ldi	r26, 0x60	; 96
      64:	b0 e0       	ldi	r27, 0x00	; 0
      66:	e4 e0       	ldi	r30, 0x04	; 4
      68:	f5 e2       	ldi	r31, 0x25	; 37
      6a:	02 c0       	rjmp	.+4      	; 0x70 <__do_copy_data+0x10>
      6c:	05 90       	lpm	r0, Z+
      6e:	0d 92       	st	X+, r0
      70:	aa 3a       	cpi	r26, 0xAA	; 170
      72:	b1 07       	cpc	r27, r17
      74:	d9 f7       	brne	.-10     	; 0x6c <__do_copy_data+0xc>

00000076 <__do_clear_bss>:
      76:	20 e0       	ldi	r18, 0x00	; 0
      78:	aa ea       	ldi	r26, 0xAA	; 170
      7a:	b0 e0       	ldi	r27, 0x00	; 0
      7c:	01 c0       	rjmp	.+2      	; 0x80 <.do_clear_bss_start>

0000007e <.do_clear_bss_loop>:
      7e:	1d 92       	st	X+, r1

00000080 <.do_clear_bss_start>:
      80:	a2 3b       	cpi	r26, 0xB2	; 178
      82:	b2 07       	cpc	r27, r18
      84:	e1 f7       	brne	.-8      	; 0x7e <.do_clear_bss_loop>
      86:	0e 94 65 0a 	call	0x14ca	; 0x14ca <main>
      8a:	0c 94 80 12 	jmp	0x2500	; 0x2500 <_exit>

0000008e <__bad_interrupt>:
      8e:	0c 94 00 00 	jmp	0	; 0x0 <__vectors>

00000092 <ADC_Init>:
      92:	cf 93       	push	r28
      94:	df 93       	push	r29
      96:	cd b7       	in	r28, 0x3d	; 61
      98:	de b7       	in	r29, 0x3e	; 62

0000009a <.LM1>:
      9a:	87 e2       	ldi	r24, 0x27	; 39
      9c:	90 e0       	ldi	r25, 0x00	; 0
      9e:	fc 01       	movw	r30, r24
      a0:	20 81       	ld	r18, Z
      a2:	87 e2       	ldi	r24, 0x27	; 39
      a4:	90 e0       	ldi	r25, 0x00	; 0
      a6:	20 64       	ori	r18, 0x40	; 64
      a8:	fc 01       	movw	r30, r24
      aa:	20 83       	st	Z, r18

000000ac <.LM2>:
      ac:	87 e2       	ldi	r24, 0x27	; 39
      ae:	90 e0       	ldi	r25, 0x00	; 0
      b0:	fc 01       	movw	r30, r24
      b2:	20 81       	ld	r18, Z
      b4:	87 e2       	ldi	r24, 0x27	; 39
      b6:	90 e0       	ldi	r25, 0x00	; 0
      b8:	2f 77       	andi	r18, 0x7F	; 127
      ba:	fc 01       	movw	r30, r24
      bc:	20 83       	st	Z, r18

000000be <.LM3>:
      be:	87 e2       	ldi	r24, 0x27	; 39
      c0:	90 e0       	ldi	r25, 0x00	; 0
      c2:	fc 01       	movw	r30, r24
      c4:	20 81       	ld	r18, Z
      c6:	87 e2       	ldi	r24, 0x27	; 39
      c8:	90 e0       	ldi	r25, 0x00	; 0
      ca:	2f 7d       	andi	r18, 0xDF	; 223
      cc:	fc 01       	movw	r30, r24
      ce:	20 83       	st	Z, r18

000000d0 <.LM4>:
      d0:	86 e2       	ldi	r24, 0x26	; 38
      d2:	90 e0       	ldi	r25, 0x00	; 0
      d4:	fc 01       	movw	r30, r24
      d6:	20 81       	ld	r18, Z
      d8:	86 e2       	ldi	r24, 0x26	; 38
      da:	90 e0       	ldi	r25, 0x00	; 0
      dc:	21 60       	ori	r18, 0x01	; 1
      de:	fc 01       	movw	r30, r24
      e0:	20 83       	st	Z, r18

000000e2 <.LM5>:
      e2:	86 e2       	ldi	r24, 0x26	; 38
      e4:	90 e0       	ldi	r25, 0x00	; 0
      e6:	fc 01       	movw	r30, r24
      e8:	20 81       	ld	r18, Z
      ea:	86 e2       	ldi	r24, 0x26	; 38
      ec:	90 e0       	ldi	r25, 0x00	; 0
      ee:	22 60       	ori	r18, 0x02	; 2
      f0:	fc 01       	movw	r30, r24
      f2:	20 83       	st	Z, r18

000000f4 <.LM6>:
      f4:	86 e2       	ldi	r24, 0x26	; 38
      f6:	90 e0       	ldi	r25, 0x00	; 0
      f8:	fc 01       	movw	r30, r24
      fa:	20 81       	ld	r18, Z
      fc:	86 e2       	ldi	r24, 0x26	; 38
      fe:	90 e0       	ldi	r25, 0x00	; 0
     100:	24 60       	ori	r18, 0x04	; 4
     102:	fc 01       	movw	r30, r24
     104:	20 83       	st	Z, r18

00000106 <.LM7>:
     106:	86 e2       	ldi	r24, 0x26	; 38
     108:	90 e0       	ldi	r25, 0x00	; 0
     10a:	fc 01       	movw	r30, r24
     10c:	20 81       	ld	r18, Z
     10e:	86 e2       	ldi	r24, 0x26	; 38
     110:	90 e0       	ldi	r25, 0x00	; 0
     112:	20 68       	ori	r18, 0x80	; 128
     114:	fc 01       	movw	r30, r24
     116:	20 83       	st	Z, r18

00000118 <.LM8>:
     118:	00 00       	nop
     11a:	df 91       	pop	r29
     11c:	cf 91       	pop	r28
     11e:	08 95       	ret

00000120 <ADC_Start>:
     120:	cf 93       	push	r28
     122:	df 93       	push	r29
     124:	0f 92       	push	r0
     126:	cd b7       	in	r28, 0x3d	; 61
     128:	de b7       	in	r29, 0x3e	; 62
     12a:	89 83       	std	Y+1, r24	; 0x01

0000012c <.LM10>:
     12c:	87 e2       	ldi	r24, 0x27	; 39
     12e:	90 e0       	ldi	r25, 0x00	; 0
     130:	fc 01       	movw	r30, r24
     132:	20 81       	ld	r18, Z
     134:	87 e2       	ldi	r24, 0x27	; 39
     136:	90 e0       	ldi	r25, 0x00	; 0
     138:	20 7e       	andi	r18, 0xE0	; 224
     13a:	fc 01       	movw	r30, r24
     13c:	20 83       	st	Z, r18

0000013e <.LM11>:
     13e:	87 e2       	ldi	r24, 0x27	; 39
     140:	90 e0       	ldi	r25, 0x00	; 0
     142:	fc 01       	movw	r30, r24
     144:	30 81       	ld	r19, Z
     146:	87 e2       	ldi	r24, 0x27	; 39
     148:	90 e0       	ldi	r25, 0x00	; 0
     14a:	29 81       	ldd	r18, Y+1	; 0x01
     14c:	23 2b       	or	r18, r19
     14e:	fc 01       	movw	r30, r24
     150:	20 83       	st	Z, r18

00000152 <.LM12>:
     152:	86 e2       	ldi	r24, 0x26	; 38
     154:	90 e0       	ldi	r25, 0x00	; 0
     156:	fc 01       	movw	r30, r24
     158:	20 81       	ld	r18, Z
     15a:	86 e2       	ldi	r24, 0x26	; 38
     15c:	90 e0       	ldi	r25, 0x00	; 0
     15e:	20 64       	ori	r18, 0x40	; 64
     160:	fc 01       	movw	r30, r24
     162:	20 83       	st	Z, r18

00000164 <.LM13>:
	...

00000166 <.L3>:
     166:	86 e2       	ldi	r24, 0x26	; 38
     168:	90 e0       	ldi	r25, 0x00	; 0
     16a:	fc 01       	movw	r30, r24
     16c:	80 81       	ld	r24, Z
     16e:	82 95       	swap	r24
     170:	8f 70       	andi	r24, 0x0F	; 15
     172:	88 2f       	mov	r24, r24
     174:	90 e0       	ldi	r25, 0x00	; 0
     176:	81 70       	andi	r24, 0x01	; 1
     178:	99 27       	eor	r25, r25

0000017a <.LM15>:
     17a:	89 2b       	or	r24, r25
     17c:	a1 f3       	breq	.-24     	; 0x166 <.L3>

0000017e <.LM16>:
     17e:	00 00       	nop
     180:	0f 90       	pop	r0
     182:	df 91       	pop	r29
     184:	cf 91       	pop	r28
     186:	08 95       	ret

00000188 <ADC_Result>:
     188:	cf 93       	push	r28
     18a:	df 93       	push	r29
     18c:	cd b7       	in	r28, 0x3d	; 61
     18e:	de b7       	in	r29, 0x3e	; 62

00000190 <.LM18>:
     190:	84 e2       	ldi	r24, 0x24	; 36
     192:	90 e0       	ldi	r25, 0x00	; 0
     194:	fc 01       	movw	r30, r24
     196:	80 81       	ld	r24, Z
     198:	91 81       	ldd	r25, Z+1	; 0x01

0000019a <.LM19>:
     19a:	df 91       	pop	r29
     19c:	cf 91       	pop	r28
     19e:	08 95       	ret

000001a0 <Analog_Value>:
     1a0:	cf 93       	push	r28
     1a2:	df 93       	push	r29
     1a4:	00 d0       	rcall	.+0      	; 0x1a6 <L0^A>

000001a6 <L0^A>:
     1a6:	00 d0       	rcall	.+0      	; 0x1a8 <L0^A>

000001a8 <L0^A>:
     1a8:	cd b7       	in	r28, 0x3d	; 61
     1aa:	de b7       	in	r29, 0x3e	; 62
     1ac:	9c 83       	std	Y+4, r25	; 0x04
     1ae:	8b 83       	std	Y+3, r24	; 0x03

000001b0 <.LM21>:
     1b0:	8b 81       	ldd	r24, Y+3	; 0x03
     1b2:	9c 81       	ldd	r25, Y+4	; 0x04
     1b4:	9c 01       	movw	r18, r24
     1b6:	40 e0       	ldi	r20, 0x00	; 0
     1b8:	50 e0       	ldi	r21, 0x00	; 0
     1ba:	88 e8       	ldi	r24, 0x88	; 136
     1bc:	93 e1       	ldi	r25, 0x13	; 19
     1be:	dc 01       	movw	r26, r24
     1c0:	0e 94 5a 11 	call	0x22b4	; 0x22b4 <__muluhisi3>
     1c4:	dc 01       	movw	r26, r24
     1c6:	cb 01       	movw	r24, r22

000001c8 <.LM22>:
     1c8:	07 2e       	mov	r0, r23
     1ca:	7a e0       	ldi	r23, 0x0A	; 10

000001cc <.L1^B1>:
     1cc:	b6 95       	lsr	r27
     1ce:	a7 95       	ror	r26
     1d0:	97 95       	ror	r25
     1d2:	87 95       	ror	r24
     1d4:	7a 95       	dec	r23
     1d6:	d1 f7       	brne	.-12     	; 0x1cc <.L1^B1>
     1d8:	70 2d       	mov	r23, r0

000001da <.LM23>:
     1da:	9a 83       	std	Y+2, r25	; 0x02
     1dc:	89 83       	std	Y+1, r24	; 0x01

000001de <.LM24>:
     1de:	89 81       	ldd	r24, Y+1	; 0x01
     1e0:	9a 81       	ldd	r25, Y+2	; 0x02

000001e2 <.LM25>:
     1e2:	0f 90       	pop	r0
     1e4:	0f 90       	pop	r0
     1e6:	0f 90       	pop	r0
     1e8:	0f 90       	pop	r0
     1ea:	df 91       	pop	r29
     1ec:	cf 91       	pop	r28
     1ee:	08 95       	ret

000001f0 <SET_Direction>:
     1f0:	cf 93       	push	r28
     1f2:	df 93       	push	r29
     1f4:	00 d0       	rcall	.+0      	; 0x1f6 <L0^A>

000001f6 <L0^A>:
     1f6:	0f 92       	push	r0
     1f8:	cd b7       	in	r28, 0x3d	; 61
     1fa:	de b7       	in	r29, 0x3e	; 62
     1fc:	89 83       	std	Y+1, r24	; 0x01
     1fe:	6a 83       	std	Y+2, r22	; 0x02
     200:	4b 83       	std	Y+3, r20	; 0x03

00000202 <.LM1>:
     202:	89 81       	ldd	r24, Y+1	; 0x01
     204:	88 2f       	mov	r24, r24
     206:	90 e0       	ldi	r25, 0x00	; 0
     208:	81 30       	cpi	r24, 0x01	; 1
     20a:	91 05       	cpc	r25, r1
     20c:	09 f4       	brne	.+2      	; 0x210 <L0^A+0x2>

0000020e <L0^A>:
     20e:	42 c0       	rjmp	.+132    	; 0x294 <.L2>
     210:	82 30       	cpi	r24, 0x02	; 2
     212:	91 05       	cpc	r25, r1
     214:	1c f4       	brge	.+6      	; 0x21c <.L3>
     216:	89 2b       	or	r24, r25
     218:	49 f0       	breq	.+18     	; 0x22c <.L4>

0000021a <.LM2>:
     21a:	de c0       	rjmp	.+444    	; 0x3d8 <.L20>

0000021c <.L3>:
     21c:	82 30       	cpi	r24, 0x02	; 2
     21e:	91 05       	cpc	r25, r1
     220:	09 f4       	brne	.+2      	; 0x224 <L0^A+0x2>

00000222 <L0^A>:
     222:	6c c0       	rjmp	.+216    	; 0x2fc <.L6>
     224:	03 97       	sbiw	r24, 0x03	; 3
     226:	09 f4       	brne	.+2      	; 0x22a <.LM4>

00000228 <L0^A>:
     228:	9d c0       	rjmp	.+314    	; 0x364 <.L7>

0000022a <.LM4>:
     22a:	d6 c0       	rjmp	.+428    	; 0x3d8 <.L20>

0000022c <.L4>:
     22c:	8b 81       	ldd	r24, Y+3	; 0x03
     22e:	88 23       	and	r24, r24
     230:	b9 f4       	brne	.+46     	; 0x260 <.L8>

00000232 <.LM6>:
     232:	8a e3       	ldi	r24, 0x3A	; 58
     234:	90 e0       	ldi	r25, 0x00	; 0
     236:	fc 01       	movw	r30, r24
     238:	80 81       	ld	r24, Z
     23a:	48 2f       	mov	r20, r24
     23c:	8a 81       	ldd	r24, Y+2	; 0x02
     23e:	28 2f       	mov	r18, r24
     240:	30 e0       	ldi	r19, 0x00	; 0
     242:	81 e0       	ldi	r24, 0x01	; 1
     244:	90 e0       	ldi	r25, 0x00	; 0
     246:	02 c0       	rjmp	.+4      	; 0x24c <.L2^B1>

00000248 <.L1^B1>:
     248:	88 0f       	add	r24, r24
     24a:	99 1f       	adc	r25, r25

0000024c <.L2^B1>:
     24c:	2a 95       	dec	r18
     24e:	e2 f7       	brpl	.-8      	; 0x248 <.L1^B1>
     250:	80 95       	com	r24
     252:	24 2f       	mov	r18, r20
     254:	28 23       	and	r18, r24
     256:	8a e3       	ldi	r24, 0x3A	; 58
     258:	90 e0       	ldi	r25, 0x00	; 0
     25a:	fc 01       	movw	r30, r24
     25c:	20 83       	st	Z, r18

0000025e <.LM7>:
     25e:	b5 c0       	rjmp	.+362    	; 0x3ca <.L16>

00000260 <.L8>:
     260:	8b 81       	ldd	r24, Y+3	; 0x03
     262:	81 30       	cpi	r24, 0x01	; 1
     264:	09 f0       	breq	.+2      	; 0x268 <.LM9>

00000266 <L0^A>:
     266:	b1 c0       	rjmp	.+354    	; 0x3ca <.L16>

00000268 <.LM9>:
     268:	8a e3       	ldi	r24, 0x3A	; 58
     26a:	90 e0       	ldi	r25, 0x00	; 0
     26c:	fc 01       	movw	r30, r24
     26e:	80 81       	ld	r24, Z
     270:	48 2f       	mov	r20, r24
     272:	8a 81       	ldd	r24, Y+2	; 0x02
     274:	28 2f       	mov	r18, r24
     276:	30 e0       	ldi	r19, 0x00	; 0
     278:	81 e0       	ldi	r24, 0x01	; 1
     27a:	90 e0       	ldi	r25, 0x00	; 0
     27c:	02 c0       	rjmp	.+4      	; 0x282 <.L2^B2>

0000027e <.L1^B2>:
     27e:	88 0f       	add	r24, r24
     280:	99 1f       	adc	r25, r25

00000282 <.L2^B2>:
     282:	2a 95       	dec	r18
     284:	e2 f7       	brpl	.-8      	; 0x27e <.L1^B2>
     286:	24 2f       	mov	r18, r20
     288:	28 2b       	or	r18, r24
     28a:	8a e3       	ldi	r24, 0x3A	; 58
     28c:	90 e0       	ldi	r25, 0x00	; 0
     28e:	fc 01       	movw	r30, r24
     290:	20 83       	st	Z, r18

00000292 <.LM10>:
     292:	9b c0       	rjmp	.+310    	; 0x3ca <.L16>

00000294 <.L2>:
     294:	8b 81       	ldd	r24, Y+3	; 0x03
     296:	88 23       	and	r24, r24
     298:	b9 f4       	brne	.+46     	; 0x2c8 <.L10>

0000029a <.LM12>:
     29a:	87 e3       	ldi	r24, 0x37	; 55
     29c:	90 e0       	ldi	r25, 0x00	; 0
     29e:	fc 01       	movw	r30, r24
     2a0:	80 81       	ld	r24, Z
     2a2:	48 2f       	mov	r20, r24
     2a4:	8a 81       	ldd	r24, Y+2	; 0x02
     2a6:	28 2f       	mov	r18, r24
     2a8:	30 e0       	ldi	r19, 0x00	; 0
     2aa:	81 e0       	ldi	r24, 0x01	; 1
     2ac:	90 e0       	ldi	r25, 0x00	; 0
     2ae:	02 c0       	rjmp	.+4      	; 0x2b4 <.L2^B3>

000002b0 <.L1^B3>:
     2b0:	88 0f       	add	r24, r24
     2b2:	99 1f       	adc	r25, r25

000002b4 <.L2^B3>:
     2b4:	2a 95       	dec	r18
     2b6:	e2 f7       	brpl	.-8      	; 0x2b0 <.L1^B3>
     2b8:	80 95       	com	r24
     2ba:	24 2f       	mov	r18, r20
     2bc:	28 23       	and	r18, r24
     2be:	87 e3       	ldi	r24, 0x37	; 55
     2c0:	90 e0       	ldi	r25, 0x00	; 0
     2c2:	fc 01       	movw	r30, r24
     2c4:	20 83       	st	Z, r18

000002c6 <.LM13>:
     2c6:	83 c0       	rjmp	.+262    	; 0x3ce <.L17>

000002c8 <.L10>:
     2c8:	8b 81       	ldd	r24, Y+3	; 0x03
     2ca:	81 30       	cpi	r24, 0x01	; 1
     2cc:	09 f0       	breq	.+2      	; 0x2d0 <.LM15>

000002ce <L0^A>:
     2ce:	7f c0       	rjmp	.+254    	; 0x3ce <.L17>

000002d0 <.LM15>:
     2d0:	87 e3       	ldi	r24, 0x37	; 55
     2d2:	90 e0       	ldi	r25, 0x00	; 0
     2d4:	fc 01       	movw	r30, r24
     2d6:	80 81       	ld	r24, Z
     2d8:	48 2f       	mov	r20, r24
     2da:	8a 81       	ldd	r24, Y+2	; 0x02
     2dc:	28 2f       	mov	r18, r24
     2de:	30 e0       	ldi	r19, 0x00	; 0
     2e0:	81 e0       	ldi	r24, 0x01	; 1
     2e2:	90 e0       	ldi	r25, 0x00	; 0
     2e4:	02 c0       	rjmp	.+4      	; 0x2ea <.L2^B4>

000002e6 <.L1^B4>:
     2e6:	88 0f       	add	r24, r24
     2e8:	99 1f       	adc	r25, r25

000002ea <.L2^B4>:
     2ea:	2a 95       	dec	r18
     2ec:	e2 f7       	brpl	.-8      	; 0x2e6 <.L1^B4>
     2ee:	24 2f       	mov	r18, r20
     2f0:	28 2b       	or	r18, r24
     2f2:	87 e3       	ldi	r24, 0x37	; 55
     2f4:	90 e0       	ldi	r25, 0x00	; 0
     2f6:	fc 01       	movw	r30, r24
     2f8:	20 83       	st	Z, r18

000002fa <.LM16>:
     2fa:	69 c0       	rjmp	.+210    	; 0x3ce <.L17>

000002fc <.L6>:
     2fc:	8b 81       	ldd	r24, Y+3	; 0x03
     2fe:	88 23       	and	r24, r24
     300:	b9 f4       	brne	.+46     	; 0x330 <.L12>

00000302 <.LM18>:
     302:	84 e3       	ldi	r24, 0x34	; 52
     304:	90 e0       	ldi	r25, 0x00	; 0
     306:	fc 01       	movw	r30, r24
     308:	80 81       	ld	r24, Z
     30a:	48 2f       	mov	r20, r24
     30c:	8a 81       	ldd	r24, Y+2	; 0x02
     30e:	28 2f       	mov	r18, r24
     310:	30 e0       	ldi	r19, 0x00	; 0
     312:	81 e0       	ldi	r24, 0x01	; 1
     314:	90 e0       	ldi	r25, 0x00	; 0
     316:	02 c0       	rjmp	.+4      	; 0x31c <.L2^B5>

00000318 <.L1^B5>:
     318:	88 0f       	add	r24, r24
     31a:	99 1f       	adc	r25, r25

0000031c <.L2^B5>:
     31c:	2a 95       	dec	r18
     31e:	e2 f7       	brpl	.-8      	; 0x318 <.L1^B5>
     320:	80 95       	com	r24
     322:	24 2f       	mov	r18, r20
     324:	28 23       	and	r18, r24
     326:	84 e3       	ldi	r24, 0x34	; 52
     328:	90 e0       	ldi	r25, 0x00	; 0
     32a:	fc 01       	movw	r30, r24
     32c:	20 83       	st	Z, r18

0000032e <.LM19>:
     32e:	51 c0       	rjmp	.+162    	; 0x3d2 <.L18>

00000330 <.L12>:
     330:	8b 81       	ldd	r24, Y+3	; 0x03
     332:	81 30       	cpi	r24, 0x01	; 1
     334:	09 f0       	breq	.+2      	; 0x338 <.LM21>

00000336 <L0^A>:
     336:	4d c0       	rjmp	.+154    	; 0x3d2 <.L18>

00000338 <.LM21>:
     338:	84 e3       	ldi	r24, 0x34	; 52
     33a:	90 e0       	ldi	r25, 0x00	; 0
     33c:	fc 01       	movw	r30, r24
     33e:	80 81       	ld	r24, Z
     340:	48 2f       	mov	r20, r24
     342:	8a 81       	ldd	r24, Y+2	; 0x02
     344:	28 2f       	mov	r18, r24
     346:	30 e0       	ldi	r19, 0x00	; 0
     348:	81 e0       	ldi	r24, 0x01	; 1
     34a:	90 e0       	ldi	r25, 0x00	; 0
     34c:	02 c0       	rjmp	.+4      	; 0x352 <.L2^B6>

0000034e <.L1^B6>:
     34e:	88 0f       	add	r24, r24
     350:	99 1f       	adc	r25, r25

00000352 <.L2^B6>:
     352:	2a 95       	dec	r18
     354:	e2 f7       	brpl	.-8      	; 0x34e <.L1^B6>
     356:	24 2f       	mov	r18, r20
     358:	28 2b       	or	r18, r24
     35a:	84 e3       	ldi	r24, 0x34	; 52
     35c:	90 e0       	ldi	r25, 0x00	; 0
     35e:	fc 01       	movw	r30, r24
     360:	20 83       	st	Z, r18

00000362 <.LM22>:
     362:	37 c0       	rjmp	.+110    	; 0x3d2 <.L18>

00000364 <.L7>:
     364:	8b 81       	ldd	r24, Y+3	; 0x03
     366:	88 23       	and	r24, r24
     368:	b9 f4       	brne	.+46     	; 0x398 <.L14>

0000036a <.LM24>:
     36a:	81 e3       	ldi	r24, 0x31	; 49
     36c:	90 e0       	ldi	r25, 0x00	; 0
     36e:	fc 01       	movw	r30, r24
     370:	80 81       	ld	r24, Z
     372:	48 2f       	mov	r20, r24
     374:	8a 81       	ldd	r24, Y+2	; 0x02
     376:	28 2f       	mov	r18, r24
     378:	30 e0       	ldi	r19, 0x00	; 0
     37a:	81 e0       	ldi	r24, 0x01	; 1
     37c:	90 e0       	ldi	r25, 0x00	; 0
     37e:	02 c0       	rjmp	.+4      	; 0x384 <.L2^B7>

00000380 <.L1^B7>:
     380:	88 0f       	add	r24, r24
     382:	99 1f       	adc	r25, r25

00000384 <.L2^B7>:
     384:	2a 95       	dec	r18
     386:	e2 f7       	brpl	.-8      	; 0x380 <.L1^B7>
     388:	80 95       	com	r24
     38a:	24 2f       	mov	r18, r20
     38c:	28 23       	and	r18, r24
     38e:	81 e3       	ldi	r24, 0x31	; 49
     390:	90 e0       	ldi	r25, 0x00	; 0
     392:	fc 01       	movw	r30, r24
     394:	20 83       	st	Z, r18

00000396 <.LM25>:
     396:	1f c0       	rjmp	.+62     	; 0x3d6 <.L19>

00000398 <.L14>:
     398:	8b 81       	ldd	r24, Y+3	; 0x03
     39a:	81 30       	cpi	r24, 0x01	; 1
     39c:	e1 f4       	brne	.+56     	; 0x3d6 <.L19>

0000039e <.LM27>:
     39e:	81 e3       	ldi	r24, 0x31	; 49
     3a0:	90 e0       	ldi	r25, 0x00	; 0
     3a2:	fc 01       	movw	r30, r24
     3a4:	80 81       	ld	r24, Z
     3a6:	48 2f       	mov	r20, r24
     3a8:	8a 81       	ldd	r24, Y+2	; 0x02
     3aa:	28 2f       	mov	r18, r24
     3ac:	30 e0       	ldi	r19, 0x00	; 0
     3ae:	81 e0       	ldi	r24, 0x01	; 1
     3b0:	90 e0       	ldi	r25, 0x00	; 0
     3b2:	02 c0       	rjmp	.+4      	; 0x3b8 <.L2^B8>

000003b4 <.L1^B8>:
     3b4:	88 0f       	add	r24, r24
     3b6:	99 1f       	adc	r25, r25

000003b8 <.L2^B8>:
     3b8:	2a 95       	dec	r18
     3ba:	e2 f7       	brpl	.-8      	; 0x3b4 <.L1^B8>
     3bc:	24 2f       	mov	r18, r20
     3be:	28 2b       	or	r18, r24
     3c0:	81 e3       	ldi	r24, 0x31	; 49
     3c2:	90 e0       	ldi	r25, 0x00	; 0
     3c4:	fc 01       	movw	r30, r24
     3c6:	20 83       	st	Z, r18

000003c8 <.LM28>:
     3c8:	06 c0       	rjmp	.+12     	; 0x3d6 <.L19>

000003ca <.L16>:
     3ca:	00 00       	nop
     3cc:	05 c0       	rjmp	.+10     	; 0x3d8 <.L20>

000003ce <.L17>:
     3ce:	00 00       	nop
     3d0:	03 c0       	rjmp	.+6      	; 0x3d8 <.L20>

000003d2 <.L18>:
     3d2:	00 00       	nop
     3d4:	01 c0       	rjmp	.+2      	; 0x3d8 <.L20>

000003d6 <.L19>:
	...

000003d8 <.L20>:
     3d8:	00 00       	nop
     3da:	0f 90       	pop	r0
     3dc:	0f 90       	pop	r0
     3de:	0f 90       	pop	r0
     3e0:	df 91       	pop	r29
     3e2:	cf 91       	pop	r28
     3e4:	08 95       	ret

000003e6 <SET_Value>:
     3e6:	cf 93       	push	r28
     3e8:	df 93       	push	r29
     3ea:	00 d0       	rcall	.+0      	; 0x3ec <L0^A>

000003ec <L0^A>:
     3ec:	0f 92       	push	r0
     3ee:	cd b7       	in	r28, 0x3d	; 61
     3f0:	de b7       	in	r29, 0x3e	; 62
     3f2:	89 83       	std	Y+1, r24	; 0x01
     3f4:	6a 83       	std	Y+2, r22	; 0x02
     3f6:	4b 83       	std	Y+3, r20	; 0x03

000003f8 <.LM35>:
     3f8:	89 81       	ldd	r24, Y+1	; 0x01
     3fa:	88 2f       	mov	r24, r24
     3fc:	90 e0       	ldi	r25, 0x00	; 0
     3fe:	81 30       	cpi	r24, 0x01	; 1
     400:	91 05       	cpc	r25, r1
     402:	09 f4       	brne	.+2      	; 0x406 <L0^A+0x2>

00000404 <L0^A>:
     404:	42 c0       	rjmp	.+132    	; 0x48a <.L22>
     406:	82 30       	cpi	r24, 0x02	; 2
     408:	91 05       	cpc	r25, r1
     40a:	1c f4       	brge	.+6      	; 0x412 <.L23>
     40c:	89 2b       	or	r24, r25
     40e:	49 f0       	breq	.+18     	; 0x422 <.L24>

00000410 <.LM36>:
     410:	de c0       	rjmp	.+444    	; 0x5ce <.L40>

00000412 <.L23>:
     412:	82 30       	cpi	r24, 0x02	; 2
     414:	91 05       	cpc	r25, r1
     416:	09 f4       	brne	.+2      	; 0x41a <L0^A+0x2>

00000418 <L0^A>:
     418:	6c c0       	rjmp	.+216    	; 0x4f2 <.L26>
     41a:	03 97       	sbiw	r24, 0x03	; 3
     41c:	09 f4       	brne	.+2      	; 0x420 <.LM38>

0000041e <L0^A>:
     41e:	9d c0       	rjmp	.+314    	; 0x55a <.L27>

00000420 <.LM38>:
     420:	d6 c0       	rjmp	.+428    	; 0x5ce <.L40>

00000422 <.L24>:
     422:	8b 81       	ldd	r24, Y+3	; 0x03
     424:	88 23       	and	r24, r24
     426:	b9 f4       	brne	.+46     	; 0x456 <.L28>

00000428 <.LM40>:
     428:	8b e3       	ldi	r24, 0x3B	; 59
     42a:	90 e0       	ldi	r25, 0x00	; 0
     42c:	fc 01       	movw	r30, r24
     42e:	80 81       	ld	r24, Z
     430:	48 2f       	mov	r20, r24
     432:	8a 81       	ldd	r24, Y+2	; 0x02
     434:	28 2f       	mov	r18, r24
     436:	30 e0       	ldi	r19, 0x00	; 0
     438:	81 e0       	ldi	r24, 0x01	; 1
     43a:	90 e0       	ldi	r25, 0x00	; 0
     43c:	02 c0       	rjmp	.+4      	; 0x442 <.L2^B9>

0000043e <.L1^B9>:
     43e:	88 0f       	add	r24, r24
     440:	99 1f       	adc	r25, r25

00000442 <.L2^B9>:
     442:	2a 95       	dec	r18
     444:	e2 f7       	brpl	.-8      	; 0x43e <.L1^B9>
     446:	80 95       	com	r24
     448:	24 2f       	mov	r18, r20
     44a:	28 23       	and	r18, r24
     44c:	8b e3       	ldi	r24, 0x3B	; 59
     44e:	90 e0       	ldi	r25, 0x00	; 0
     450:	fc 01       	movw	r30, r24
     452:	20 83       	st	Z, r18

00000454 <.LM41>:
     454:	b5 c0       	rjmp	.+362    	; 0x5c0 <.L36>

00000456 <.L28>:
     456:	8b 81       	ldd	r24, Y+3	; 0x03
     458:	81 30       	cpi	r24, 0x01	; 1
     45a:	09 f0       	breq	.+2      	; 0x45e <.LM43>

0000045c <L0^A>:
     45c:	b1 c0       	rjmp	.+354    	; 0x5c0 <.L36>

0000045e <.LM43>:
     45e:	8b e3       	ldi	r24, 0x3B	; 59
     460:	90 e0       	ldi	r25, 0x00	; 0
     462:	fc 01       	movw	r30, r24
     464:	80 81       	ld	r24, Z
     466:	48 2f       	mov	r20, r24
     468:	8a 81       	ldd	r24, Y+2	; 0x02
     46a:	28 2f       	mov	r18, r24
     46c:	30 e0       	ldi	r19, 0x00	; 0
     46e:	81 e0       	ldi	r24, 0x01	; 1
     470:	90 e0       	ldi	r25, 0x00	; 0
     472:	02 c0       	rjmp	.+4      	; 0x478 <.L2^B10>

00000474 <.L1^B10>:
     474:	88 0f       	add	r24, r24
     476:	99 1f       	adc	r25, r25

00000478 <.L2^B10>:
     478:	2a 95       	dec	r18
     47a:	e2 f7       	brpl	.-8      	; 0x474 <.L1^B10>
     47c:	24 2f       	mov	r18, r20
     47e:	28 2b       	or	r18, r24
     480:	8b e3       	ldi	r24, 0x3B	; 59
     482:	90 e0       	ldi	r25, 0x00	; 0
     484:	fc 01       	movw	r30, r24
     486:	20 83       	st	Z, r18

00000488 <.LM44>:
     488:	9b c0       	rjmp	.+310    	; 0x5c0 <.L36>

0000048a <.L22>:
     48a:	8b 81       	ldd	r24, Y+3	; 0x03
     48c:	88 23       	and	r24, r24
     48e:	b9 f4       	brne	.+46     	; 0x4be <.L30>

00000490 <.LM46>:
     490:	88 e3       	ldi	r24, 0x38	; 56
     492:	90 e0       	ldi	r25, 0x00	; 0
     494:	fc 01       	movw	r30, r24
     496:	80 81       	ld	r24, Z
     498:	48 2f       	mov	r20, r24
     49a:	8a 81       	ldd	r24, Y+2	; 0x02
     49c:	28 2f       	mov	r18, r24
     49e:	30 e0       	ldi	r19, 0x00	; 0
     4a0:	81 e0       	ldi	r24, 0x01	; 1
     4a2:	90 e0       	ldi	r25, 0x00	; 0
     4a4:	02 c0       	rjmp	.+4      	; 0x4aa <.L2^B11>

000004a6 <.L1^B11>:
     4a6:	88 0f       	add	r24, r24
     4a8:	99 1f       	adc	r25, r25

000004aa <.L2^B11>:
     4aa:	2a 95       	dec	r18
     4ac:	e2 f7       	brpl	.-8      	; 0x4a6 <.L1^B11>
     4ae:	80 95       	com	r24
     4b0:	24 2f       	mov	r18, r20
     4b2:	28 23       	and	r18, r24
     4b4:	88 e3       	ldi	r24, 0x38	; 56
     4b6:	90 e0       	ldi	r25, 0x00	; 0
     4b8:	fc 01       	movw	r30, r24
     4ba:	20 83       	st	Z, r18

000004bc <.LM47>:
     4bc:	83 c0       	rjmp	.+262    	; 0x5c4 <.L37>

000004be <.L30>:
     4be:	8b 81       	ldd	r24, Y+3	; 0x03
     4c0:	81 30       	cpi	r24, 0x01	; 1
     4c2:	09 f0       	breq	.+2      	; 0x4c6 <.LM49>

000004c4 <L0^A>:
     4c4:	7f c0       	rjmp	.+254    	; 0x5c4 <.L37>

000004c6 <.LM49>:
     4c6:	88 e3       	ldi	r24, 0x38	; 56
     4c8:	90 e0       	ldi	r25, 0x00	; 0
     4ca:	fc 01       	movw	r30, r24
     4cc:	80 81       	ld	r24, Z
     4ce:	48 2f       	mov	r20, r24
     4d0:	8a 81       	ldd	r24, Y+2	; 0x02
     4d2:	28 2f       	mov	r18, r24
     4d4:	30 e0       	ldi	r19, 0x00	; 0
     4d6:	81 e0       	ldi	r24, 0x01	; 1
     4d8:	90 e0       	ldi	r25, 0x00	; 0
     4da:	02 c0       	rjmp	.+4      	; 0x4e0 <.L2^B12>

000004dc <.L1^B12>:
     4dc:	88 0f       	add	r24, r24
     4de:	99 1f       	adc	r25, r25

000004e0 <.L2^B12>:
     4e0:	2a 95       	dec	r18
     4e2:	e2 f7       	brpl	.-8      	; 0x4dc <.L1^B12>
     4e4:	24 2f       	mov	r18, r20
     4e6:	28 2b       	or	r18, r24
     4e8:	88 e3       	ldi	r24, 0x38	; 56
     4ea:	90 e0       	ldi	r25, 0x00	; 0
     4ec:	fc 01       	movw	r30, r24
     4ee:	20 83       	st	Z, r18

000004f0 <.LM50>:
     4f0:	69 c0       	rjmp	.+210    	; 0x5c4 <.L37>

000004f2 <.L26>:
     4f2:	8b 81       	ldd	r24, Y+3	; 0x03
     4f4:	88 23       	and	r24, r24
     4f6:	b9 f4       	brne	.+46     	; 0x526 <.L32>

000004f8 <.LM52>:
     4f8:	85 e3       	ldi	r24, 0x35	; 53
     4fa:	90 e0       	ldi	r25, 0x00	; 0
     4fc:	fc 01       	movw	r30, r24
     4fe:	80 81       	ld	r24, Z
     500:	48 2f       	mov	r20, r24
     502:	8a 81       	ldd	r24, Y+2	; 0x02
     504:	28 2f       	mov	r18, r24
     506:	30 e0       	ldi	r19, 0x00	; 0
     508:	81 e0       	ldi	r24, 0x01	; 1
     50a:	90 e0       	ldi	r25, 0x00	; 0
     50c:	02 c0       	rjmp	.+4      	; 0x512 <.L2^B13>

0000050e <.L1^B13>:
     50e:	88 0f       	add	r24, r24
     510:	99 1f       	adc	r25, r25

00000512 <.L2^B13>:
     512:	2a 95       	dec	r18
     514:	e2 f7       	brpl	.-8      	; 0x50e <.L1^B13>
     516:	80 95       	com	r24
     518:	24 2f       	mov	r18, r20
     51a:	28 23       	and	r18, r24
     51c:	85 e3       	ldi	r24, 0x35	; 53
     51e:	90 e0       	ldi	r25, 0x00	; 0
     520:	fc 01       	movw	r30, r24
     522:	20 83       	st	Z, r18

00000524 <.LM53>:
     524:	51 c0       	rjmp	.+162    	; 0x5c8 <.L38>

00000526 <.L32>:
     526:	8b 81       	ldd	r24, Y+3	; 0x03
     528:	81 30       	cpi	r24, 0x01	; 1
     52a:	09 f0       	breq	.+2      	; 0x52e <.LM55>

0000052c <L0^A>:
     52c:	4d c0       	rjmp	.+154    	; 0x5c8 <.L38>

0000052e <.LM55>:
     52e:	85 e3       	ldi	r24, 0x35	; 53
     530:	90 e0       	ldi	r25, 0x00	; 0
     532:	fc 01       	movw	r30, r24
     534:	80 81       	ld	r24, Z
     536:	48 2f       	mov	r20, r24
     538:	8a 81       	ldd	r24, Y+2	; 0x02
     53a:	28 2f       	mov	r18, r24
     53c:	30 e0       	ldi	r19, 0x00	; 0
     53e:	81 e0       	ldi	r24, 0x01	; 1
     540:	90 e0       	ldi	r25, 0x00	; 0
     542:	02 c0       	rjmp	.+4      	; 0x548 <.L2^B14>

00000544 <.L1^B14>:
     544:	88 0f       	add	r24, r24
     546:	99 1f       	adc	r25, r25

00000548 <.L2^B14>:
     548:	2a 95       	dec	r18
     54a:	e2 f7       	brpl	.-8      	; 0x544 <.L1^B14>
     54c:	24 2f       	mov	r18, r20
     54e:	28 2b       	or	r18, r24
     550:	85 e3       	ldi	r24, 0x35	; 53
     552:	90 e0       	ldi	r25, 0x00	; 0
     554:	fc 01       	movw	r30, r24
     556:	20 83       	st	Z, r18

00000558 <.LM56>:
     558:	37 c0       	rjmp	.+110    	; 0x5c8 <.L38>

0000055a <.L27>:
     55a:	8b 81       	ldd	r24, Y+3	; 0x03
     55c:	88 23       	and	r24, r24
     55e:	b9 f4       	brne	.+46     	; 0x58e <.L34>

00000560 <.LM58>:
     560:	82 e3       	ldi	r24, 0x32	; 50
     562:	90 e0       	ldi	r25, 0x00	; 0
     564:	fc 01       	movw	r30, r24
     566:	80 81       	ld	r24, Z
     568:	48 2f       	mov	r20, r24
     56a:	8a 81       	ldd	r24, Y+2	; 0x02
     56c:	28 2f       	mov	r18, r24
     56e:	30 e0       	ldi	r19, 0x00	; 0
     570:	81 e0       	ldi	r24, 0x01	; 1
     572:	90 e0       	ldi	r25, 0x00	; 0
     574:	02 c0       	rjmp	.+4      	; 0x57a <.L2^B15>

00000576 <.L1^B15>:
     576:	88 0f       	add	r24, r24
     578:	99 1f       	adc	r25, r25

0000057a <.L2^B15>:
     57a:	2a 95       	dec	r18
     57c:	e2 f7       	brpl	.-8      	; 0x576 <.L1^B15>
     57e:	80 95       	com	r24
     580:	24 2f       	mov	r18, r20
     582:	28 23       	and	r18, r24
     584:	82 e3       	ldi	r24, 0x32	; 50
     586:	90 e0       	ldi	r25, 0x00	; 0
     588:	fc 01       	movw	r30, r24
     58a:	20 83       	st	Z, r18

0000058c <.LM59>:
     58c:	1f c0       	rjmp	.+62     	; 0x5cc <.L39>

0000058e <.L34>:
     58e:	8b 81       	ldd	r24, Y+3	; 0x03
     590:	81 30       	cpi	r24, 0x01	; 1
     592:	e1 f4       	brne	.+56     	; 0x5cc <.L39>

00000594 <.LM61>:
     594:	82 e3       	ldi	r24, 0x32	; 50
     596:	90 e0       	ldi	r25, 0x00	; 0
     598:	fc 01       	movw	r30, r24
     59a:	80 81       	ld	r24, Z
     59c:	48 2f       	mov	r20, r24
     59e:	8a 81       	ldd	r24, Y+2	; 0x02
     5a0:	28 2f       	mov	r18, r24
     5a2:	30 e0       	ldi	r19, 0x00	; 0
     5a4:	81 e0       	ldi	r24, 0x01	; 1
     5a6:	90 e0       	ldi	r25, 0x00	; 0
     5a8:	02 c0       	rjmp	.+4      	; 0x5ae <.L2^B16>

000005aa <.L1^B16>:
     5aa:	88 0f       	add	r24, r24
     5ac:	99 1f       	adc	r25, r25

000005ae <.L2^B16>:
     5ae:	2a 95       	dec	r18
     5b0:	e2 f7       	brpl	.-8      	; 0x5aa <.L1^B16>
     5b2:	24 2f       	mov	r18, r20
     5b4:	28 2b       	or	r18, r24
     5b6:	82 e3       	ldi	r24, 0x32	; 50
     5b8:	90 e0       	ldi	r25, 0x00	; 0
     5ba:	fc 01       	movw	r30, r24
     5bc:	20 83       	st	Z, r18

000005be <.LM62>:
     5be:	06 c0       	rjmp	.+12     	; 0x5cc <.L39>

000005c0 <.L36>:
     5c0:	00 00       	nop
     5c2:	05 c0       	rjmp	.+10     	; 0x5ce <.L40>

000005c4 <.L37>:
     5c4:	00 00       	nop
     5c6:	03 c0       	rjmp	.+6      	; 0x5ce <.L40>

000005c8 <.L38>:
     5c8:	00 00       	nop
     5ca:	01 c0       	rjmp	.+2      	; 0x5ce <.L40>

000005cc <.L39>:
	...

000005ce <.L40>:
     5ce:	00 00       	nop
     5d0:	0f 90       	pop	r0
     5d2:	0f 90       	pop	r0
     5d4:	0f 90       	pop	r0
     5d6:	df 91       	pop	r29
     5d8:	cf 91       	pop	r28
     5da:	08 95       	ret

000005dc <GET_Value>:
     5dc:	cf 93       	push	r28
     5de:	df 93       	push	r29
     5e0:	00 d0       	rcall	.+0      	; 0x5e2 <L0^A>

000005e2 <L0^A>:
     5e2:	cd b7       	in	r28, 0x3d	; 61
     5e4:	de b7       	in	r29, 0x3e	; 62
     5e6:	89 83       	std	Y+1, r24	; 0x01
     5e8:	6a 83       	std	Y+2, r22	; 0x02

000005ea <.LM69>:
     5ea:	89 81       	ldd	r24, Y+1	; 0x01
     5ec:	88 2f       	mov	r24, r24
     5ee:	90 e0       	ldi	r25, 0x00	; 0
     5f0:	81 30       	cpi	r24, 0x01	; 1
     5f2:	91 05       	cpc	r25, r1
     5f4:	e1 f0       	breq	.+56     	; 0x62e <.L42>
     5f6:	82 30       	cpi	r24, 0x02	; 2
     5f8:	91 05       	cpc	r25, r1
     5fa:	1c f4       	brge	.+6      	; 0x602 <.L43>
     5fc:	89 2b       	or	r24, r25
     5fe:	39 f0       	breq	.+14     	; 0x60e <.L44>
     600:	46 c0       	rjmp	.+140    	; 0x68e <.L45>

00000602 <.L43>:
     602:	82 30       	cpi	r24, 0x02	; 2
     604:	91 05       	cpc	r25, r1
     606:	19 f1       	breq	.+70     	; 0x64e <.L46>
     608:	03 97       	sbiw	r24, 0x03	; 3
     60a:	89 f1       	breq	.+98     	; 0x66e <.L47>
     60c:	40 c0       	rjmp	.+128    	; 0x68e <.L45>

0000060e <.L44>:
     60e:	89 e3       	ldi	r24, 0x39	; 57
     610:	90 e0       	ldi	r25, 0x00	; 0
     612:	fc 01       	movw	r30, r24
     614:	80 81       	ld	r24, Z
     616:	88 2f       	mov	r24, r24
     618:	90 e0       	ldi	r25, 0x00	; 0
     61a:	2a 81       	ldd	r18, Y+2	; 0x02
     61c:	22 2f       	mov	r18, r18
     61e:	30 e0       	ldi	r19, 0x00	; 0
     620:	02 c0       	rjmp	.+4      	; 0x626 <.L2^B17>

00000622 <.L1^B17>:
     622:	95 95       	asr	r25
     624:	87 95       	ror	r24

00000626 <.L2^B17>:
     626:	2a 95       	dec	r18
     628:	e2 f7       	brpl	.-8      	; 0x622 <.L1^B17>
     62a:	81 70       	andi	r24, 0x01	; 1
     62c:	31 c0       	rjmp	.+98     	; 0x690 <.L48>

0000062e <.L42>:
     62e:	86 e3       	ldi	r24, 0x36	; 54
     630:	90 e0       	ldi	r25, 0x00	; 0
     632:	fc 01       	movw	r30, r24
     634:	80 81       	ld	r24, Z
     636:	88 2f       	mov	r24, r24
     638:	90 e0       	ldi	r25, 0x00	; 0
     63a:	2a 81       	ldd	r18, Y+2	; 0x02
     63c:	22 2f       	mov	r18, r18
     63e:	30 e0       	ldi	r19, 0x00	; 0
     640:	02 c0       	rjmp	.+4      	; 0x646 <.L2^B18>

00000642 <.L1^B18>:
     642:	95 95       	asr	r25
     644:	87 95       	ror	r24

00000646 <.L2^B18>:
     646:	2a 95       	dec	r18
     648:	e2 f7       	brpl	.-8      	; 0x642 <.L1^B18>
     64a:	81 70       	andi	r24, 0x01	; 1
     64c:	21 c0       	rjmp	.+66     	; 0x690 <.L48>

0000064e <.L46>:
     64e:	86 e3       	ldi	r24, 0x36	; 54
     650:	90 e0       	ldi	r25, 0x00	; 0
     652:	fc 01       	movw	r30, r24
     654:	80 81       	ld	r24, Z
     656:	88 2f       	mov	r24, r24
     658:	90 e0       	ldi	r25, 0x00	; 0
     65a:	2a 81       	ldd	r18, Y+2	; 0x02
     65c:	22 2f       	mov	r18, r18
     65e:	30 e0       	ldi	r19, 0x00	; 0
     660:	02 c0       	rjmp	.+4      	; 0x666 <.L2^B19>

00000662 <.L1^B19>:
     662:	95 95       	asr	r25
     664:	87 95       	ror	r24

00000666 <.L2^B19>:
     666:	2a 95       	dec	r18
     668:	e2 f7       	brpl	.-8      	; 0x662 <.L1^B19>
     66a:	81 70       	andi	r24, 0x01	; 1
     66c:	11 c0       	rjmp	.+34     	; 0x690 <.L48>

0000066e <.L47>:
     66e:	86 e3       	ldi	r24, 0x36	; 54
     670:	90 e0       	ldi	r25, 0x00	; 0
     672:	fc 01       	movw	r30, r24
     674:	80 81       	ld	r24, Z
     676:	88 2f       	mov	r24, r24
     678:	90 e0       	ldi	r25, 0x00	; 0
     67a:	2a 81       	ldd	r18, Y+2	; 0x02
     67c:	22 2f       	mov	r18, r18
     67e:	30 e0       	ldi	r19, 0x00	; 0
     680:	02 c0       	rjmp	.+4      	; 0x686 <.L2^B20>

00000682 <.L1^B20>:
     682:	95 95       	asr	r25
     684:	87 95       	ror	r24

00000686 <.L2^B20>:
     686:	2a 95       	dec	r18
     688:	e2 f7       	brpl	.-8      	; 0x682 <.L1^B20>
     68a:	81 70       	andi	r24, 0x01	; 1
     68c:	01 c0       	rjmp	.+2      	; 0x690 <.L48>

0000068e <.L45>:
     68e:	80 e0       	ldi	r24, 0x00	; 0

00000690 <.L48>:
     690:	0f 90       	pop	r0
     692:	0f 90       	pop	r0
     694:	df 91       	pop	r29
     696:	cf 91       	pop	r28
     698:	08 95       	ret

0000069a <SET_Direction_4LSB>:
     69a:	cf 93       	push	r28
     69c:	df 93       	push	r29
     69e:	00 d0       	rcall	.+0      	; 0x6a0 <L0^A>

000006a0 <L0^A>:
     6a0:	cd b7       	in	r28, 0x3d	; 61
     6a2:	de b7       	in	r29, 0x3e	; 62
     6a4:	89 83       	std	Y+1, r24	; 0x01
     6a6:	6a 83       	std	Y+2, r22	; 0x02

000006a8 <.LM77>:
     6a8:	89 81       	ldd	r24, Y+1	; 0x01
     6aa:	88 2f       	mov	r24, r24
     6ac:	90 e0       	ldi	r25, 0x00	; 0
     6ae:	81 30       	cpi	r24, 0x01	; 1
     6b0:	91 05       	cpc	r25, r1
     6b2:	41 f1       	breq	.+80     	; 0x704 <.L50>
     6b4:	82 30       	cpi	r24, 0x02	; 2
     6b6:	91 05       	cpc	r25, r1
     6b8:	1c f4       	brge	.+6      	; 0x6c0 <.L51>
     6ba:	89 2b       	or	r24, r25
     6bc:	41 f0       	breq	.+16     	; 0x6ce <.L52>

000006be <.LM78>:
     6be:	78 c0       	rjmp	.+240    	; 0x7b0 <.L68>

000006c0 <.L51>:
     6c0:	82 30       	cpi	r24, 0x02	; 2
     6c2:	91 05       	cpc	r25, r1
     6c4:	d1 f1       	breq	.+116    	; 0x73a <.L54>
     6c6:	03 97       	sbiw	r24, 0x03	; 3
     6c8:	09 f4       	brne	.+2      	; 0x6cc <.LM80>

000006ca <L0^A>:
     6ca:	51 c0       	rjmp	.+162    	; 0x76e <.L55>

000006cc <.LM80>:
     6cc:	71 c0       	rjmp	.+226    	; 0x7b0 <.L68>

000006ce <.L52>:
     6ce:	8a 81       	ldd	r24, Y+2	; 0x02
     6d0:	88 23       	and	r24, r24
     6d2:	51 f4       	brne	.+20     	; 0x6e8 <.L56>

000006d4 <.LM82>:
     6d4:	8a e3       	ldi	r24, 0x3A	; 58
     6d6:	90 e0       	ldi	r25, 0x00	; 0
     6d8:	fc 01       	movw	r30, r24
     6da:	20 81       	ld	r18, Z
     6dc:	8a e3       	ldi	r24, 0x3A	; 58
     6de:	90 e0       	ldi	r25, 0x00	; 0
     6e0:	20 7f       	andi	r18, 0xF0	; 240
     6e2:	fc 01       	movw	r30, r24
     6e4:	20 83       	st	Z, r18

000006e6 <.LM83>:
     6e6:	5d c0       	rjmp	.+186    	; 0x7a2 <.L64>

000006e8 <.L56>:
     6e8:	8a 81       	ldd	r24, Y+2	; 0x02
     6ea:	81 30       	cpi	r24, 0x01	; 1
     6ec:	09 f0       	breq	.+2      	; 0x6f0 <.LM85>

000006ee <L0^A>:
     6ee:	59 c0       	rjmp	.+178    	; 0x7a2 <.L64>

000006f0 <.LM85>:
     6f0:	8a e3       	ldi	r24, 0x3A	; 58
     6f2:	90 e0       	ldi	r25, 0x00	; 0
     6f4:	fc 01       	movw	r30, r24
     6f6:	20 81       	ld	r18, Z
     6f8:	8a e3       	ldi	r24, 0x3A	; 58
     6fa:	90 e0       	ldi	r25, 0x00	; 0
     6fc:	2f 60       	ori	r18, 0x0F	; 15
     6fe:	fc 01       	movw	r30, r24
     700:	20 83       	st	Z, r18

00000702 <.LM86>:
     702:	4f c0       	rjmp	.+158    	; 0x7a2 <.L64>

00000704 <.L50>:
     704:	8a 81       	ldd	r24, Y+2	; 0x02
     706:	88 23       	and	r24, r24
     708:	51 f4       	brne	.+20     	; 0x71e <.L58>

0000070a <.LM88>:
     70a:	87 e3       	ldi	r24, 0x37	; 55
     70c:	90 e0       	ldi	r25, 0x00	; 0
     70e:	fc 01       	movw	r30, r24
     710:	20 81       	ld	r18, Z
     712:	87 e3       	ldi	r24, 0x37	; 55
     714:	90 e0       	ldi	r25, 0x00	; 0
     716:	20 7f       	andi	r18, 0xF0	; 240
     718:	fc 01       	movw	r30, r24
     71a:	20 83       	st	Z, r18

0000071c <.LM89>:
     71c:	44 c0       	rjmp	.+136    	; 0x7a6 <.L65>

0000071e <.L58>:
     71e:	8a 81       	ldd	r24, Y+2	; 0x02
     720:	81 30       	cpi	r24, 0x01	; 1
     722:	09 f0       	breq	.+2      	; 0x726 <.LM91>

00000724 <L0^A>:
     724:	40 c0       	rjmp	.+128    	; 0x7a6 <.L65>

00000726 <.LM91>:
     726:	87 e3       	ldi	r24, 0x37	; 55
     728:	90 e0       	ldi	r25, 0x00	; 0
     72a:	fc 01       	movw	r30, r24
     72c:	20 81       	ld	r18, Z
     72e:	87 e3       	ldi	r24, 0x37	; 55
     730:	90 e0       	ldi	r25, 0x00	; 0
     732:	2f 60       	ori	r18, 0x0F	; 15
     734:	fc 01       	movw	r30, r24
     736:	20 83       	st	Z, r18

00000738 <.LM92>:
     738:	36 c0       	rjmp	.+108    	; 0x7a6 <.L65>

0000073a <.L54>:
     73a:	8a 81       	ldd	r24, Y+2	; 0x02
     73c:	88 23       	and	r24, r24
     73e:	51 f4       	brne	.+20     	; 0x754 <.L60>

00000740 <.LM94>:
     740:	84 e3       	ldi	r24, 0x34	; 52
     742:	90 e0       	ldi	r25, 0x00	; 0
     744:	fc 01       	movw	r30, r24
     746:	20 81       	ld	r18, Z
     748:	84 e3       	ldi	r24, 0x34	; 52
     74a:	90 e0       	ldi	r25, 0x00	; 0
     74c:	20 7f       	andi	r18, 0xF0	; 240
     74e:	fc 01       	movw	r30, r24
     750:	20 83       	st	Z, r18

00000752 <.LM95>:
     752:	2b c0       	rjmp	.+86     	; 0x7aa <.L66>

00000754 <.L60>:
     754:	8a 81       	ldd	r24, Y+2	; 0x02
     756:	81 30       	cpi	r24, 0x01	; 1
     758:	41 f5       	brne	.+80     	; 0x7aa <.L66>

0000075a <.LM97>:
     75a:	84 e3       	ldi	r24, 0x34	; 52
     75c:	90 e0       	ldi	r25, 0x00	; 0
     75e:	fc 01       	movw	r30, r24
     760:	20 81       	ld	r18, Z
     762:	84 e3       	ldi	r24, 0x34	; 52
     764:	90 e0       	ldi	r25, 0x00	; 0
     766:	2f 60       	ori	r18, 0x0F	; 15
     768:	fc 01       	movw	r30, r24
     76a:	20 83       	st	Z, r18

0000076c <.LM98>:
     76c:	1e c0       	rjmp	.+60     	; 0x7aa <.L66>

0000076e <.L55>:
     76e:	8a 81       	ldd	r24, Y+2	; 0x02
     770:	88 23       	and	r24, r24
     772:	51 f4       	brne	.+20     	; 0x788 <.L62>

00000774 <.LM100>:
     774:	81 e3       	ldi	r24, 0x31	; 49
     776:	90 e0       	ldi	r25, 0x00	; 0
     778:	fc 01       	movw	r30, r24
     77a:	20 81       	ld	r18, Z
     77c:	81 e3       	ldi	r24, 0x31	; 49
     77e:	90 e0       	ldi	r25, 0x00	; 0
     780:	20 7f       	andi	r18, 0xF0	; 240
     782:	fc 01       	movw	r30, r24
     784:	20 83       	st	Z, r18

00000786 <.LM101>:
     786:	13 c0       	rjmp	.+38     	; 0x7ae <.L67>

00000788 <.L62>:
     788:	8a 81       	ldd	r24, Y+2	; 0x02
     78a:	81 30       	cpi	r24, 0x01	; 1
     78c:	81 f4       	brne	.+32     	; 0x7ae <.L67>

0000078e <.LM103>:
     78e:	81 e3       	ldi	r24, 0x31	; 49
     790:	90 e0       	ldi	r25, 0x00	; 0
     792:	fc 01       	movw	r30, r24
     794:	20 81       	ld	r18, Z
     796:	81 e3       	ldi	r24, 0x31	; 49
     798:	90 e0       	ldi	r25, 0x00	; 0
     79a:	2f 60       	ori	r18, 0x0F	; 15
     79c:	fc 01       	movw	r30, r24
     79e:	20 83       	st	Z, r18

000007a0 <.LM104>:
     7a0:	06 c0       	rjmp	.+12     	; 0x7ae <.L67>

000007a2 <.L64>:
     7a2:	00 00       	nop
     7a4:	05 c0       	rjmp	.+10     	; 0x7b0 <.L68>

000007a6 <.L65>:
     7a6:	00 00       	nop
     7a8:	03 c0       	rjmp	.+6      	; 0x7b0 <.L68>

000007aa <.L66>:
     7aa:	00 00       	nop
     7ac:	01 c0       	rjmp	.+2      	; 0x7b0 <.L68>

000007ae <.L67>:
	...

000007b0 <.L68>:
     7b0:	00 00       	nop
     7b2:	0f 90       	pop	r0
     7b4:	0f 90       	pop	r0
     7b6:	df 91       	pop	r29
     7b8:	cf 91       	pop	r28
     7ba:	08 95       	ret

000007bc <SET_Value_4LSB>:
     7bc:	cf 93       	push	r28
     7be:	df 93       	push	r29
     7c0:	00 d0       	rcall	.+0      	; 0x7c2 <L0^A>

000007c2 <L0^A>:
     7c2:	cd b7       	in	r28, 0x3d	; 61
     7c4:	de b7       	in	r29, 0x3e	; 62
     7c6:	89 83       	std	Y+1, r24	; 0x01
     7c8:	6a 83       	std	Y+2, r22	; 0x02

000007ca <.LM111>:
     7ca:	89 81       	ldd	r24, Y+1	; 0x01
     7cc:	88 2f       	mov	r24, r24
     7ce:	90 e0       	ldi	r25, 0x00	; 0
     7d0:	81 30       	cpi	r24, 0x01	; 1
     7d2:	91 05       	cpc	r25, r1
     7d4:	01 f1       	breq	.+64     	; 0x816 <.L70>
     7d6:	82 30       	cpi	r24, 0x02	; 2
     7d8:	91 05       	cpc	r25, r1
     7da:	1c f4       	brge	.+6      	; 0x7e2 <.L71>
     7dc:	89 2b       	or	r24, r25
     7de:	39 f0       	breq	.+14     	; 0x7ee <.L72>

000007e0 <.LM112>:
     7e0:	56 c0       	rjmp	.+172    	; 0x88e <.L73>

000007e2 <.L71>:
     7e2:	82 30       	cpi	r24, 0x02	; 2
     7e4:	91 05       	cpc	r25, r1
     7e6:	59 f1       	breq	.+86     	; 0x83e <.L74>
     7e8:	03 97       	sbiw	r24, 0x03	; 3
     7ea:	e9 f1       	breq	.+122    	; 0x866 <.L75>

000007ec <.LM114>:
     7ec:	50 c0       	rjmp	.+160    	; 0x88e <.L73>

000007ee <.L72>:
     7ee:	8b e3       	ldi	r24, 0x3B	; 59
     7f0:	90 e0       	ldi	r25, 0x00	; 0
     7f2:	fc 01       	movw	r30, r24
     7f4:	20 81       	ld	r18, Z
     7f6:	8b e3       	ldi	r24, 0x3B	; 59
     7f8:	90 e0       	ldi	r25, 0x00	; 0
     7fa:	20 7f       	andi	r18, 0xF0	; 240
     7fc:	fc 01       	movw	r30, r24
     7fe:	20 83       	st	Z, r18

00000800 <.LM116>:
     800:	8b e3       	ldi	r24, 0x3B	; 59
     802:	90 e0       	ldi	r25, 0x00	; 0
     804:	fc 01       	movw	r30, r24
     806:	30 81       	ld	r19, Z
     808:	8b e3       	ldi	r24, 0x3B	; 59
     80a:	90 e0       	ldi	r25, 0x00	; 0
     80c:	2a 81       	ldd	r18, Y+2	; 0x02
     80e:	23 2b       	or	r18, r19
     810:	fc 01       	movw	r30, r24
     812:	20 83       	st	Z, r18

00000814 <.LM117>:
     814:	3c c0       	rjmp	.+120    	; 0x88e <.L73>

00000816 <.L70>:
     816:	88 e3       	ldi	r24, 0x38	; 56
     818:	90 e0       	ldi	r25, 0x00	; 0
     81a:	fc 01       	movw	r30, r24
     81c:	20 81       	ld	r18, Z
     81e:	88 e3       	ldi	r24, 0x38	; 56
     820:	90 e0       	ldi	r25, 0x00	; 0
     822:	20 7f       	andi	r18, 0xF0	; 240
     824:	fc 01       	movw	r30, r24
     826:	20 83       	st	Z, r18

00000828 <.LM119>:
     828:	88 e3       	ldi	r24, 0x38	; 56
     82a:	90 e0       	ldi	r25, 0x00	; 0
     82c:	fc 01       	movw	r30, r24
     82e:	30 81       	ld	r19, Z
     830:	88 e3       	ldi	r24, 0x38	; 56
     832:	90 e0       	ldi	r25, 0x00	; 0
     834:	2a 81       	ldd	r18, Y+2	; 0x02
     836:	23 2b       	or	r18, r19
     838:	fc 01       	movw	r30, r24
     83a:	20 83       	st	Z, r18

0000083c <.LM120>:
     83c:	28 c0       	rjmp	.+80     	; 0x88e <.L73>

0000083e <.L74>:
     83e:	85 e3       	ldi	r24, 0x35	; 53
     840:	90 e0       	ldi	r25, 0x00	; 0
     842:	fc 01       	movw	r30, r24
     844:	20 81       	ld	r18, Z
     846:	85 e3       	ldi	r24, 0x35	; 53
     848:	90 e0       	ldi	r25, 0x00	; 0
     84a:	20 7f       	andi	r18, 0xF0	; 240
     84c:	fc 01       	movw	r30, r24
     84e:	20 83       	st	Z, r18

00000850 <.LM122>:
     850:	85 e3       	ldi	r24, 0x35	; 53
     852:	90 e0       	ldi	r25, 0x00	; 0
     854:	fc 01       	movw	r30, r24
     856:	30 81       	ld	r19, Z
     858:	85 e3       	ldi	r24, 0x35	; 53
     85a:	90 e0       	ldi	r25, 0x00	; 0
     85c:	2a 81       	ldd	r18, Y+2	; 0x02
     85e:	23 2b       	or	r18, r19
     860:	fc 01       	movw	r30, r24
     862:	20 83       	st	Z, r18

00000864 <.LM123>:
     864:	14 c0       	rjmp	.+40     	; 0x88e <.L73>

00000866 <.L75>:
     866:	82 e3       	ldi	r24, 0x32	; 50
     868:	90 e0       	ldi	r25, 0x00	; 0
     86a:	fc 01       	movw	r30, r24
     86c:	20 81       	ld	r18, Z
     86e:	82 e3       	ldi	r24, 0x32	; 50
     870:	90 e0       	ldi	r25, 0x00	; 0
     872:	20 7f       	andi	r18, 0xF0	; 240
     874:	fc 01       	movw	r30, r24
     876:	20 83       	st	Z, r18

00000878 <.LM125>:
     878:	82 e3       	ldi	r24, 0x32	; 50
     87a:	90 e0       	ldi	r25, 0x00	; 0
     87c:	fc 01       	movw	r30, r24
     87e:	30 81       	ld	r19, Z
     880:	82 e3       	ldi	r24, 0x32	; 50
     882:	90 e0       	ldi	r25, 0x00	; 0
     884:	2a 81       	ldd	r18, Y+2	; 0x02
     886:	23 2b       	or	r18, r19
     888:	fc 01       	movw	r30, r24
     88a:	20 83       	st	Z, r18

0000088c <.LM126>:
	...

0000088e <.L73>:
     88e:	00 00       	nop
     890:	0f 90       	pop	r0
     892:	0f 90       	pop	r0
     894:	df 91       	pop	r29
     896:	cf 91       	pop	r28
     898:	08 95       	ret

0000089a <SET_Direction_4MSB>:
     89a:	cf 93       	push	r28
     89c:	df 93       	push	r29
     89e:	00 d0       	rcall	.+0      	; 0x8a0 <L0^A>

000008a0 <L0^A>:
     8a0:	cd b7       	in	r28, 0x3d	; 61
     8a2:	de b7       	in	r29, 0x3e	; 62
     8a4:	89 83       	std	Y+1, r24	; 0x01
     8a6:	6a 83       	std	Y+2, r22	; 0x02

000008a8 <.LM129>:
     8a8:	89 81       	ldd	r24, Y+1	; 0x01
     8aa:	88 2f       	mov	r24, r24
     8ac:	90 e0       	ldi	r25, 0x00	; 0
     8ae:	81 30       	cpi	r24, 0x01	; 1
     8b0:	91 05       	cpc	r25, r1
     8b2:	41 f1       	breq	.+80     	; 0x904 <.L78>
     8b4:	82 30       	cpi	r24, 0x02	; 2
     8b6:	91 05       	cpc	r25, r1
     8b8:	1c f4       	brge	.+6      	; 0x8c0 <.L79>
     8ba:	89 2b       	or	r24, r25
     8bc:	41 f0       	breq	.+16     	; 0x8ce <.L80>

000008be <.LM130>:
     8be:	78 c0       	rjmp	.+240    	; 0x9b0 <.L96>

000008c0 <.L79>:
     8c0:	82 30       	cpi	r24, 0x02	; 2
     8c2:	91 05       	cpc	r25, r1
     8c4:	d1 f1       	breq	.+116    	; 0x93a <.L82>
     8c6:	03 97       	sbiw	r24, 0x03	; 3
     8c8:	09 f4       	brne	.+2      	; 0x8cc <.LM132>

000008ca <L0^A>:
     8ca:	51 c0       	rjmp	.+162    	; 0x96e <.L83>

000008cc <.LM132>:
     8cc:	71 c0       	rjmp	.+226    	; 0x9b0 <.L96>

000008ce <.L80>:
     8ce:	8a 81       	ldd	r24, Y+2	; 0x02
     8d0:	88 23       	and	r24, r24
     8d2:	51 f4       	brne	.+20     	; 0x8e8 <.L84>

000008d4 <.LM134>:
     8d4:	8a e3       	ldi	r24, 0x3A	; 58
     8d6:	90 e0       	ldi	r25, 0x00	; 0
     8d8:	fc 01       	movw	r30, r24
     8da:	20 81       	ld	r18, Z
     8dc:	8a e3       	ldi	r24, 0x3A	; 58
     8de:	90 e0       	ldi	r25, 0x00	; 0
     8e0:	2f 70       	andi	r18, 0x0F	; 15
     8e2:	fc 01       	movw	r30, r24
     8e4:	20 83       	st	Z, r18

000008e6 <.LM135>:
     8e6:	5d c0       	rjmp	.+186    	; 0x9a2 <.L92>

000008e8 <.L84>:
     8e8:	8a 81       	ldd	r24, Y+2	; 0x02
     8ea:	81 30       	cpi	r24, 0x01	; 1
     8ec:	09 f0       	breq	.+2      	; 0x8f0 <.LM137>

000008ee <L0^A>:
     8ee:	59 c0       	rjmp	.+178    	; 0x9a2 <.L92>

000008f0 <.LM137>:
     8f0:	8a e3       	ldi	r24, 0x3A	; 58
     8f2:	90 e0       	ldi	r25, 0x00	; 0
     8f4:	fc 01       	movw	r30, r24
     8f6:	20 81       	ld	r18, Z
     8f8:	8a e3       	ldi	r24, 0x3A	; 58
     8fa:	90 e0       	ldi	r25, 0x00	; 0
     8fc:	20 6f       	ori	r18, 0xF0	; 240
     8fe:	fc 01       	movw	r30, r24
     900:	20 83       	st	Z, r18

00000902 <.LM138>:
     902:	4f c0       	rjmp	.+158    	; 0x9a2 <.L92>

00000904 <.L78>:
     904:	8a 81       	ldd	r24, Y+2	; 0x02
     906:	88 23       	and	r24, r24
     908:	51 f4       	brne	.+20     	; 0x91e <.L86>

0000090a <.LM140>:
     90a:	87 e3       	ldi	r24, 0x37	; 55
     90c:	90 e0       	ldi	r25, 0x00	; 0
     90e:	fc 01       	movw	r30, r24
     910:	20 81       	ld	r18, Z
     912:	87 e3       	ldi	r24, 0x37	; 55
     914:	90 e0       	ldi	r25, 0x00	; 0
     916:	2f 70       	andi	r18, 0x0F	; 15
     918:	fc 01       	movw	r30, r24
     91a:	20 83       	st	Z, r18

0000091c <.LM141>:
     91c:	44 c0       	rjmp	.+136    	; 0x9a6 <.L93>

0000091e <.L86>:
     91e:	8a 81       	ldd	r24, Y+2	; 0x02
     920:	81 30       	cpi	r24, 0x01	; 1
     922:	09 f0       	breq	.+2      	; 0x926 <.LM143>

00000924 <L0^A>:
     924:	40 c0       	rjmp	.+128    	; 0x9a6 <.L93>

00000926 <.LM143>:
     926:	87 e3       	ldi	r24, 0x37	; 55
     928:	90 e0       	ldi	r25, 0x00	; 0
     92a:	fc 01       	movw	r30, r24
     92c:	20 81       	ld	r18, Z
     92e:	87 e3       	ldi	r24, 0x37	; 55
     930:	90 e0       	ldi	r25, 0x00	; 0
     932:	20 6f       	ori	r18, 0xF0	; 240
     934:	fc 01       	movw	r30, r24
     936:	20 83       	st	Z, r18

00000938 <.LM144>:
     938:	36 c0       	rjmp	.+108    	; 0x9a6 <.L93>

0000093a <.L82>:
     93a:	8a 81       	ldd	r24, Y+2	; 0x02
     93c:	88 23       	and	r24, r24
     93e:	51 f4       	brne	.+20     	; 0x954 <.L88>

00000940 <.LM146>:
     940:	84 e3       	ldi	r24, 0x34	; 52
     942:	90 e0       	ldi	r25, 0x00	; 0
     944:	fc 01       	movw	r30, r24
     946:	20 81       	ld	r18, Z
     948:	84 e3       	ldi	r24, 0x34	; 52
     94a:	90 e0       	ldi	r25, 0x00	; 0
     94c:	2f 70       	andi	r18, 0x0F	; 15
     94e:	fc 01       	movw	r30, r24
     950:	20 83       	st	Z, r18

00000952 <.LM147>:
     952:	2b c0       	rjmp	.+86     	; 0x9aa <.L94>

00000954 <.L88>:
     954:	8a 81       	ldd	r24, Y+2	; 0x02
     956:	81 30       	cpi	r24, 0x01	; 1
     958:	41 f5       	brne	.+80     	; 0x9aa <.L94>

0000095a <.LM149>:
     95a:	84 e3       	ldi	r24, 0x34	; 52
     95c:	90 e0       	ldi	r25, 0x00	; 0
     95e:	fc 01       	movw	r30, r24
     960:	20 81       	ld	r18, Z
     962:	84 e3       	ldi	r24, 0x34	; 52
     964:	90 e0       	ldi	r25, 0x00	; 0
     966:	20 6f       	ori	r18, 0xF0	; 240
     968:	fc 01       	movw	r30, r24
     96a:	20 83       	st	Z, r18

0000096c <.LM150>:
     96c:	1e c0       	rjmp	.+60     	; 0x9aa <.L94>

0000096e <.L83>:
     96e:	8a 81       	ldd	r24, Y+2	; 0x02
     970:	88 23       	and	r24, r24
     972:	51 f4       	brne	.+20     	; 0x988 <.L90>

00000974 <.LM152>:
     974:	81 e3       	ldi	r24, 0x31	; 49
     976:	90 e0       	ldi	r25, 0x00	; 0
     978:	fc 01       	movw	r30, r24
     97a:	20 81       	ld	r18, Z
     97c:	81 e3       	ldi	r24, 0x31	; 49
     97e:	90 e0       	ldi	r25, 0x00	; 0
     980:	2f 70       	andi	r18, 0x0F	; 15
     982:	fc 01       	movw	r30, r24
     984:	20 83       	st	Z, r18

00000986 <.LM153>:
     986:	13 c0       	rjmp	.+38     	; 0x9ae <.L95>

00000988 <.L90>:
     988:	8a 81       	ldd	r24, Y+2	; 0x02
     98a:	81 30       	cpi	r24, 0x01	; 1
     98c:	81 f4       	brne	.+32     	; 0x9ae <.L95>

0000098e <.LM155>:
     98e:	81 e3       	ldi	r24, 0x31	; 49
     990:	90 e0       	ldi	r25, 0x00	; 0
     992:	fc 01       	movw	r30, r24
     994:	20 81       	ld	r18, Z
     996:	81 e3       	ldi	r24, 0x31	; 49
     998:	90 e0       	ldi	r25, 0x00	; 0
     99a:	20 6f       	ori	r18, 0xF0	; 240
     99c:	fc 01       	movw	r30, r24
     99e:	20 83       	st	Z, r18

000009a0 <.LM156>:
     9a0:	06 c0       	rjmp	.+12     	; 0x9ae <.L95>

000009a2 <.L92>:
     9a2:	00 00       	nop
     9a4:	05 c0       	rjmp	.+10     	; 0x9b0 <.L96>

000009a6 <.L93>:
     9a6:	00 00       	nop
     9a8:	03 c0       	rjmp	.+6      	; 0x9b0 <.L96>

000009aa <.L94>:
     9aa:	00 00       	nop
     9ac:	01 c0       	rjmp	.+2      	; 0x9b0 <.L96>

000009ae <.L95>:
	...

000009b0 <.L96>:
     9b0:	00 00       	nop
     9b2:	0f 90       	pop	r0
     9b4:	0f 90       	pop	r0
     9b6:	df 91       	pop	r29
     9b8:	cf 91       	pop	r28
     9ba:	08 95       	ret

000009bc <SET_Value_4MSB>:
     9bc:	cf 93       	push	r28
     9be:	df 93       	push	r29
     9c0:	00 d0       	rcall	.+0      	; 0x9c2 <L0^A>

000009c2 <L0^A>:
     9c2:	cd b7       	in	r28, 0x3d	; 61
     9c4:	de b7       	in	r29, 0x3e	; 62
     9c6:	89 83       	std	Y+1, r24	; 0x01
     9c8:	6a 83       	std	Y+2, r22	; 0x02

000009ca <.LM163>:
     9ca:	89 81       	ldd	r24, Y+1	; 0x01
     9cc:	88 2f       	mov	r24, r24
     9ce:	90 e0       	ldi	r25, 0x00	; 0
     9d0:	81 30       	cpi	r24, 0x01	; 1
     9d2:	91 05       	cpc	r25, r1
     9d4:	59 f1       	breq	.+86     	; 0xa2c <.L98>
     9d6:	82 30       	cpi	r24, 0x02	; 2
     9d8:	91 05       	cpc	r25, r1
     9da:	1c f4       	brge	.+6      	; 0x9e2 <.L99>
     9dc:	89 2b       	or	r24, r25
     9de:	49 f0       	breq	.+18     	; 0x9f2 <.L100>

000009e0 <.LM164>:
     9e0:	7c c0       	rjmp	.+248    	; 0xada <.L101>

000009e2 <.L99>:
     9e2:	82 30       	cpi	r24, 0x02	; 2
     9e4:	91 05       	cpc	r25, r1
     9e6:	09 f4       	brne	.+2      	; 0x9ea <L0^A+0x2>

000009e8 <L0^A>:
     9e8:	3e c0       	rjmp	.+124    	; 0xa66 <.L102>
     9ea:	03 97       	sbiw	r24, 0x03	; 3
     9ec:	09 f4       	brne	.+2      	; 0x9f0 <.LM166>

000009ee <L0^A>:
     9ee:	58 c0       	rjmp	.+176    	; 0xaa0 <.L103>

000009f0 <.LM166>:
     9f0:	74 c0       	rjmp	.+232    	; 0xada <.L101>

000009f2 <.L100>:
     9f2:	8b e3       	ldi	r24, 0x3B	; 59
     9f4:	90 e0       	ldi	r25, 0x00	; 0
     9f6:	fc 01       	movw	r30, r24
     9f8:	20 81       	ld	r18, Z
     9fa:	8b e3       	ldi	r24, 0x3B	; 59
     9fc:	90 e0       	ldi	r25, 0x00	; 0
     9fe:	2f 70       	andi	r18, 0x0F	; 15
     a00:	fc 01       	movw	r30, r24
     a02:	20 83       	st	Z, r18

00000a04 <.LM168>:
     a04:	8b e3       	ldi	r24, 0x3B	; 59
     a06:	90 e0       	ldi	r25, 0x00	; 0
     a08:	fc 01       	movw	r30, r24
     a0a:	80 81       	ld	r24, Z
     a0c:	28 2f       	mov	r18, r24

00000a0e <.LM169>:
     a0e:	8a 81       	ldd	r24, Y+2	; 0x02
     a10:	88 2f       	mov	r24, r24
     a12:	90 e0       	ldi	r25, 0x00	; 0
     a14:	82 95       	swap	r24
     a16:	92 95       	swap	r25
     a18:	90 7f       	andi	r25, 0xF0	; 240
     a1a:	98 27       	eor	r25, r24
     a1c:	80 7f       	andi	r24, 0xF0	; 240
     a1e:	98 27       	eor	r25, r24

00000a20 <.LM170>:
     a20:	28 2b       	or	r18, r24
     a22:	8b e3       	ldi	r24, 0x3B	; 59
     a24:	90 e0       	ldi	r25, 0x00	; 0
     a26:	fc 01       	movw	r30, r24
     a28:	20 83       	st	Z, r18

00000a2a <.LM171>:
     a2a:	57 c0       	rjmp	.+174    	; 0xada <.L101>

00000a2c <.L98>:
     a2c:	88 e3       	ldi	r24, 0x38	; 56
     a2e:	90 e0       	ldi	r25, 0x00	; 0
     a30:	fc 01       	movw	r30, r24
     a32:	20 81       	ld	r18, Z
     a34:	88 e3       	ldi	r24, 0x38	; 56
     a36:	90 e0       	ldi	r25, 0x00	; 0
     a38:	2f 70       	andi	r18, 0x0F	; 15
     a3a:	fc 01       	movw	r30, r24
     a3c:	20 83       	st	Z, r18

00000a3e <.LM173>:
     a3e:	88 e3       	ldi	r24, 0x38	; 56
     a40:	90 e0       	ldi	r25, 0x00	; 0
     a42:	fc 01       	movw	r30, r24
     a44:	80 81       	ld	r24, Z
     a46:	28 2f       	mov	r18, r24

00000a48 <.LM174>:
     a48:	8a 81       	ldd	r24, Y+2	; 0x02
     a4a:	88 2f       	mov	r24, r24
     a4c:	90 e0       	ldi	r25, 0x00	; 0
     a4e:	82 95       	swap	r24
     a50:	92 95       	swap	r25
     a52:	90 7f       	andi	r25, 0xF0	; 240
     a54:	98 27       	eor	r25, r24
     a56:	80 7f       	andi	r24, 0xF0	; 240
     a58:	98 27       	eor	r25, r24

00000a5a <.LM175>:
     a5a:	28 2b       	or	r18, r24
     a5c:	88 e3       	ldi	r24, 0x38	; 56
     a5e:	90 e0       	ldi	r25, 0x00	; 0
     a60:	fc 01       	movw	r30, r24
     a62:	20 83       	st	Z, r18

00000a64 <.LM176>:
     a64:	3a c0       	rjmp	.+116    	; 0xada <.L101>

00000a66 <.L102>:
     a66:	85 e3       	ldi	r24, 0x35	; 53
     a68:	90 e0       	ldi	r25, 0x00	; 0
     a6a:	fc 01       	movw	r30, r24
     a6c:	20 81       	ld	r18, Z
     a6e:	85 e3       	ldi	r24, 0x35	; 53
     a70:	90 e0       	ldi	r25, 0x00	; 0
     a72:	2f 70       	andi	r18, 0x0F	; 15
     a74:	fc 01       	movw	r30, r24
     a76:	20 83       	st	Z, r18

00000a78 <.LM178>:
     a78:	85 e3       	ldi	r24, 0x35	; 53
     a7a:	90 e0       	ldi	r25, 0x00	; 0
     a7c:	fc 01       	movw	r30, r24
     a7e:	80 81       	ld	r24, Z
     a80:	28 2f       	mov	r18, r24

00000a82 <.LM179>:
     a82:	8a 81       	ldd	r24, Y+2	; 0x02
     a84:	88 2f       	mov	r24, r24
     a86:	90 e0       	ldi	r25, 0x00	; 0
     a88:	82 95       	swap	r24
     a8a:	92 95       	swap	r25
     a8c:	90 7f       	andi	r25, 0xF0	; 240
     a8e:	98 27       	eor	r25, r24
     a90:	80 7f       	andi	r24, 0xF0	; 240
     a92:	98 27       	eor	r25, r24

00000a94 <.LM180>:
     a94:	28 2b       	or	r18, r24
     a96:	85 e3       	ldi	r24, 0x35	; 53
     a98:	90 e0       	ldi	r25, 0x00	; 0
     a9a:	fc 01       	movw	r30, r24
     a9c:	20 83       	st	Z, r18

00000a9e <.LM181>:
     a9e:	1d c0       	rjmp	.+58     	; 0xada <.L101>

00000aa0 <.L103>:
     aa0:	82 e3       	ldi	r24, 0x32	; 50
     aa2:	90 e0       	ldi	r25, 0x00	; 0
     aa4:	fc 01       	movw	r30, r24
     aa6:	20 81       	ld	r18, Z
     aa8:	82 e3       	ldi	r24, 0x32	; 50
     aaa:	90 e0       	ldi	r25, 0x00	; 0
     aac:	2f 70       	andi	r18, 0x0F	; 15
     aae:	fc 01       	movw	r30, r24
     ab0:	20 83       	st	Z, r18

00000ab2 <.LM183>:
     ab2:	82 e3       	ldi	r24, 0x32	; 50
     ab4:	90 e0       	ldi	r25, 0x00	; 0
     ab6:	fc 01       	movw	r30, r24
     ab8:	80 81       	ld	r24, Z
     aba:	28 2f       	mov	r18, r24

00000abc <.LM184>:
     abc:	8a 81       	ldd	r24, Y+2	; 0x02
     abe:	88 2f       	mov	r24, r24
     ac0:	90 e0       	ldi	r25, 0x00	; 0
     ac2:	82 95       	swap	r24
     ac4:	92 95       	swap	r25
     ac6:	90 7f       	andi	r25, 0xF0	; 240
     ac8:	98 27       	eor	r25, r24
     aca:	80 7f       	andi	r24, 0xF0	; 240
     acc:	98 27       	eor	r25, r24

00000ace <.LM185>:
     ace:	28 2b       	or	r18, r24
     ad0:	82 e3       	ldi	r24, 0x32	; 50
     ad2:	90 e0       	ldi	r25, 0x00	; 0
     ad4:	fc 01       	movw	r30, r24
     ad6:	20 83       	st	Z, r18

00000ad8 <.LM186>:
	...

00000ada <.L101>:
     ada:	00 00       	nop
     adc:	0f 90       	pop	r0
     ade:	0f 90       	pop	r0
     ae0:	df 91       	pop	r29
     ae2:	cf 91       	pop	r28
     ae4:	08 95       	ret

00000ae6 <EXTI_Enable>:
     ae6:	cf 93       	push	r28
     ae8:	df 93       	push	r29
     aea:	0f 92       	push	r0
     aec:	cd b7       	in	r28, 0x3d	; 61
     aee:	de b7       	in	r29, 0x3e	; 62
     af0:	89 83       	std	Y+1, r24	; 0x01

00000af2 <.LM1>:
     af2:	89 81       	ldd	r24, Y+1	; 0x01
     af4:	88 2f       	mov	r24, r24
     af6:	90 e0       	ldi	r25, 0x00	; 0
     af8:	00 97       	sbiw	r24, 0x00	; 0
     afa:	19 f0       	breq	.+6      	; 0xb02 <.L2>
     afc:	01 97       	sbiw	r24, 0x01	; 1
     afe:	e9 f0       	breq	.+58     	; 0xb3a <.L3>

00000b00 <.LM2>:
     b00:	38 c0       	rjmp	.+112    	; 0xb72 <.L4>

00000b02 <.L2>:
     b02:	85 e5       	ldi	r24, 0x55	; 85
     b04:	90 e0       	ldi	r25, 0x00	; 0
     b06:	fc 01       	movw	r30, r24
     b08:	20 81       	ld	r18, Z
     b0a:	85 e5       	ldi	r24, 0x55	; 85
     b0c:	90 e0       	ldi	r25, 0x00	; 0
     b0e:	2e 7f       	andi	r18, 0xFE	; 254
     b10:	fc 01       	movw	r30, r24
     b12:	20 83       	st	Z, r18

00000b14 <.LM4>:
     b14:	85 e5       	ldi	r24, 0x55	; 85
     b16:	90 e0       	ldi	r25, 0x00	; 0
     b18:	fc 01       	movw	r30, r24
     b1a:	20 81       	ld	r18, Z
     b1c:	85 e5       	ldi	r24, 0x55	; 85
     b1e:	90 e0       	ldi	r25, 0x00	; 0
     b20:	2d 7f       	andi	r18, 0xFD	; 253
     b22:	fc 01       	movw	r30, r24
     b24:	20 83       	st	Z, r18

00000b26 <.LM5>:
     b26:	8b e5       	ldi	r24, 0x5B	; 91
     b28:	90 e0       	ldi	r25, 0x00	; 0
     b2a:	fc 01       	movw	r30, r24
     b2c:	20 81       	ld	r18, Z
     b2e:	8b e5       	ldi	r24, 0x5B	; 91
     b30:	90 e0       	ldi	r25, 0x00	; 0
     b32:	20 64       	ori	r18, 0x40	; 64
     b34:	fc 01       	movw	r30, r24
     b36:	20 83       	st	Z, r18

00000b38 <.LM6>:
     b38:	1c c0       	rjmp	.+56     	; 0xb72 <.L4>

00000b3a <.L3>:
     b3a:	85 e5       	ldi	r24, 0x55	; 85
     b3c:	90 e0       	ldi	r25, 0x00	; 0
     b3e:	fc 01       	movw	r30, r24
     b40:	20 81       	ld	r18, Z
     b42:	85 e5       	ldi	r24, 0x55	; 85
     b44:	90 e0       	ldi	r25, 0x00	; 0
     b46:	2b 7f       	andi	r18, 0xFB	; 251
     b48:	fc 01       	movw	r30, r24
     b4a:	20 83       	st	Z, r18

00000b4c <.LM8>:
     b4c:	85 e5       	ldi	r24, 0x55	; 85
     b4e:	90 e0       	ldi	r25, 0x00	; 0
     b50:	fc 01       	movw	r30, r24
     b52:	20 81       	ld	r18, Z
     b54:	85 e5       	ldi	r24, 0x55	; 85
     b56:	90 e0       	ldi	r25, 0x00	; 0
     b58:	27 7f       	andi	r18, 0xF7	; 247
     b5a:	fc 01       	movw	r30, r24
     b5c:	20 83       	st	Z, r18

00000b5e <.LM9>:
     b5e:	8b e5       	ldi	r24, 0x5B	; 91
     b60:	90 e0       	ldi	r25, 0x00	; 0
     b62:	fc 01       	movw	r30, r24
     b64:	20 81       	ld	r18, Z
     b66:	8b e5       	ldi	r24, 0x5B	; 91
     b68:	90 e0       	ldi	r25, 0x00	; 0
     b6a:	20 68       	ori	r18, 0x80	; 128
     b6c:	fc 01       	movw	r30, r24
     b6e:	20 83       	st	Z, r18

00000b70 <.LM10>:
	...

00000b72 <.L4>:
     b72:	00 00       	nop
     b74:	0f 90       	pop	r0
     b76:	df 91       	pop	r29
     b78:	cf 91       	pop	r28
     b7a:	08 95       	ret

00000b7c <Interrupt_Enable>:
     b7c:	cf 93       	push	r28
     b7e:	df 93       	push	r29
     b80:	cd b7       	in	r28, 0x3d	; 61
     b82:	de b7       	in	r29, 0x3e	; 62

00000b84 <.LM1>:
     b84:	8f e5       	ldi	r24, 0x5F	; 95
     b86:	90 e0       	ldi	r25, 0x00	; 0
     b88:	fc 01       	movw	r30, r24
     b8a:	20 81       	ld	r18, Z
     b8c:	8f e5       	ldi	r24, 0x5F	; 95
     b8e:	90 e0       	ldi	r25, 0x00	; 0
     b90:	20 68       	ori	r18, 0x80	; 128
     b92:	fc 01       	movw	r30, r24
     b94:	20 83       	st	Z, r18

00000b96 <.LM2>:
     b96:	00 00       	nop
     b98:	df 91       	pop	r29
     b9a:	cf 91       	pop	r28
     b9c:	08 95       	ret

00000b9e <LCD_Init>:
     b9e:	cf 93       	push	r28
     ba0:	df 93       	push	r29
     ba2:	cd b7       	in	r28, 0x3d	; 61
     ba4:	de b7       	in	r29, 0x3e	; 62
     ba6:	2e 97       	sbiw	r28, 0x0e	; 14
     ba8:	0f b6       	in	r0, 0x3f	; 63
     baa:	f8 94       	cli
     bac:	de bf       	out	0x3e, r29	; 62
     bae:	0f be       	out	0x3f, r0	; 63
     bb0:	cd bf       	out	0x3d, r28	; 61

00000bb2 <.LM1>:
     bb2:	82 e0       	ldi	r24, 0x02	; 2
     bb4:	0e 94 70 06 	call	0xce0	; 0xce0 <LCD_SendCommands>

00000bb8 <.LM2>:
     bb8:	82 e0       	ldi	r24, 0x02	; 2
     bba:	0e 94 70 06 	call	0xce0	; 0xce0 <LCD_SendCommands>

00000bbe <.LM3>:
     bbe:	88 e2       	ldi	r24, 0x28	; 40
     bc0:	0e 94 70 06 	call	0xce0	; 0xce0 <LCD_SendCommands>

00000bc4 <.LM4>:
     bc4:	80 e0       	ldi	r24, 0x00	; 0
     bc6:	0e 94 70 06 	call	0xce0	; 0xce0 <LCD_SendCommands>

00000bca <.LM5>:
     bca:	8f e0       	ldi	r24, 0x0F	; 15
     bcc:	0e 94 70 06 	call	0xce0	; 0xce0 <LCD_SendCommands>

00000bd0 <.LM6>:
     bd0:	80 e0       	ldi	r24, 0x00	; 0
     bd2:	0e 94 70 06 	call	0xce0	; 0xce0 <LCD_SendCommands>

00000bd6 <.LM7>:
     bd6:	81 e0       	ldi	r24, 0x01	; 1
     bd8:	0e 94 70 06 	call	0xce0	; 0xce0 <LCD_SendCommands>
     bdc:	80 e0       	ldi	r24, 0x00	; 0
     bde:	90 e0       	ldi	r25, 0x00	; 0
     be0:	a0 e0       	ldi	r26, 0x00	; 0
     be2:	b0 e4       	ldi	r27, 0x40	; 64
     be4:	89 83       	std	Y+1, r24	; 0x01
     be6:	9a 83       	std	Y+2, r25	; 0x02
     be8:	ab 83       	std	Y+3, r26	; 0x03
     bea:	bc 83       	std	Y+4, r27	; 0x04

00000bec <.LM8>:
     bec:	20 e0       	ldi	r18, 0x00	; 0
     bee:	30 e0       	ldi	r19, 0x00	; 0
     bf0:	4a ef       	ldi	r20, 0xFA	; 250
     bf2:	54 e4       	ldi	r21, 0x44	; 68
     bf4:	69 81       	ldd	r22, Y+1	; 0x01
     bf6:	7a 81       	ldd	r23, Y+2	; 0x02
     bf8:	8b 81       	ldd	r24, Y+3	; 0x03
     bfa:	9c 81       	ldd	r25, Y+4	; 0x04
     bfc:	0e 94 eb 11 	call	0x23d6	; 0x23d6 <__mulsf3>
     c00:	dc 01       	movw	r26, r24
     c02:	cb 01       	movw	r24, r22
     c04:	8d 83       	std	Y+5, r24	; 0x05
     c06:	9e 83       	std	Y+6, r25	; 0x06
     c08:	af 83       	std	Y+7, r26	; 0x07
     c0a:	b8 87       	std	Y+8, r27	; 0x08

00000c0c <.LM9>:
     c0c:	20 e0       	ldi	r18, 0x00	; 0
     c0e:	30 e0       	ldi	r19, 0x00	; 0
     c10:	40 e8       	ldi	r20, 0x80	; 128
     c12:	5f e3       	ldi	r21, 0x3F	; 63
     c14:	6d 81       	ldd	r22, Y+5	; 0x05
     c16:	7e 81       	ldd	r23, Y+6	; 0x06
     c18:	8f 81       	ldd	r24, Y+7	; 0x07
     c1a:	98 85       	ldd	r25, Y+8	; 0x08
     c1c:	0e 94 65 11 	call	0x22ca	; 0x22ca <__cmpsf2>
     c20:	88 23       	and	r24, r24
     c22:	2c f4       	brge	.+10     	; 0xc2e <.L12>

00000c24 <.LM10>:
     c24:	81 e0       	ldi	r24, 0x01	; 1
     c26:	90 e0       	ldi	r25, 0x00	; 0
     c28:	9a 87       	std	Y+10, r25	; 0x0a
     c2a:	89 87       	std	Y+9, r24	; 0x09
     c2c:	3f c0       	rjmp	.+126    	; 0xcac <.L4>

00000c2e <.L12>:
     c2e:	20 e0       	ldi	r18, 0x00	; 0
     c30:	3f ef       	ldi	r19, 0xFF	; 255
     c32:	4f e7       	ldi	r20, 0x7F	; 127
     c34:	57 e4       	ldi	r21, 0x47	; 71
     c36:	6d 81       	ldd	r22, Y+5	; 0x05
     c38:	7e 81       	ldd	r23, Y+6	; 0x06
     c3a:	8f 81       	ldd	r24, Y+7	; 0x07
     c3c:	98 85       	ldd	r25, Y+8	; 0x08
     c3e:	0e 94 e6 11 	call	0x23cc	; 0x23cc <__gesf2>
     c42:	18 16       	cp	r1, r24
     c44:	4c f5       	brge	.+82     	; 0xc98 <.L13>

00000c46 <.LM12>:
     c46:	20 e0       	ldi	r18, 0x00	; 0
     c48:	30 e0       	ldi	r19, 0x00	; 0
     c4a:	40 e2       	ldi	r20, 0x20	; 32
     c4c:	51 e4       	ldi	r21, 0x41	; 65
     c4e:	69 81       	ldd	r22, Y+1	; 0x01
     c50:	7a 81       	ldd	r23, Y+2	; 0x02
     c52:	8b 81       	ldd	r24, Y+3	; 0x03
     c54:	9c 81       	ldd	r25, Y+4	; 0x04
     c56:	0e 94 eb 11 	call	0x23d6	; 0x23d6 <__mulsf3>
     c5a:	dc 01       	movw	r26, r24
     c5c:	cb 01       	movw	r24, r22

00000c5e <.LM13>:
     c5e:	bc 01       	movw	r22, r24
     c60:	cd 01       	movw	r24, r26
     c62:	0e 94 6a 11 	call	0x22d4	; 0x22d4 <__fixunssfsi>
     c66:	dc 01       	movw	r26, r24
     c68:	cb 01       	movw	r24, r22
     c6a:	9a 87       	std	Y+10, r25	; 0x0a
     c6c:	89 87       	std	Y+9, r24	; 0x09
     c6e:	0f c0       	rjmp	.+30     	; 0xc8e <.L7>

00000c70 <.L8>:
     c70:	88 ec       	ldi	r24, 0xC8	; 200
     c72:	90 e0       	ldi	r25, 0x00	; 0
     c74:	9c 87       	std	Y+12, r25	; 0x0c
     c76:	8b 87       	std	Y+11, r24	; 0x0b

00000c78 <.LM14>:
     c78:	8b 85       	ldd	r24, Y+11	; 0x0b
     c7a:	9c 85       	ldd	r25, Y+12	; 0x0c

00000c7c <.L1^B1>:
     c7c:	01 97       	sbiw	r24, 0x01	; 1
     c7e:	f1 f7       	brne	.-4      	; 0xc7c <.L1^B1>
     c80:	9c 87       	std	Y+12, r25	; 0x0c
     c82:	8b 87       	std	Y+11, r24	; 0x0b

00000c84 <.LM15>:
     c84:	89 85       	ldd	r24, Y+9	; 0x09
     c86:	9a 85       	ldd	r25, Y+10	; 0x0a
     c88:	01 97       	sbiw	r24, 0x01	; 1
     c8a:	9a 87       	std	Y+10, r25	; 0x0a
     c8c:	89 87       	std	Y+9, r24	; 0x09

00000c8e <.L7>:
     c8e:	89 85       	ldd	r24, Y+9	; 0x09
     c90:	9a 85       	ldd	r25, Y+10	; 0x0a
     c92:	89 2b       	or	r24, r25
     c94:	69 f7       	brne	.-38     	; 0xc70 <.L8>

00000c96 <.LM17>:
     c96:	14 c0       	rjmp	.+40     	; 0xcc0 <.L9>

00000c98 <.L13>:
     c98:	6d 81       	ldd	r22, Y+5	; 0x05
     c9a:	7e 81       	ldd	r23, Y+6	; 0x06
     c9c:	8f 81       	ldd	r24, Y+7	; 0x07
     c9e:	98 85       	ldd	r25, Y+8	; 0x08
     ca0:	0e 94 6a 11 	call	0x22d4	; 0x22d4 <__fixunssfsi>
     ca4:	dc 01       	movw	r26, r24
     ca6:	cb 01       	movw	r24, r22
     ca8:	9a 87       	std	Y+10, r25	; 0x0a
     caa:	89 87       	std	Y+9, r24	; 0x09

00000cac <.L4>:
     cac:	89 85       	ldd	r24, Y+9	; 0x09
     cae:	9a 85       	ldd	r25, Y+10	; 0x0a
     cb0:	9e 87       	std	Y+14, r25	; 0x0e
     cb2:	8d 87       	std	Y+13, r24	; 0x0d

00000cb4 <.LM19>:
     cb4:	8d 85       	ldd	r24, Y+13	; 0x0d
     cb6:	9e 85       	ldd	r25, Y+14	; 0x0e

00000cb8 <.L1^B2>:
     cb8:	01 97       	sbiw	r24, 0x01	; 1
     cba:	f1 f7       	brne	.-4      	; 0xcb8 <.L1^B2>
     cbc:	9e 87       	std	Y+14, r25	; 0x0e
     cbe:	8d 87       	std	Y+13, r24	; 0x0d

00000cc0 <.L9>:
     cc0:	80 e0       	ldi	r24, 0x00	; 0
     cc2:	0e 94 70 06 	call	0xce0	; 0xce0 <LCD_SendCommands>

00000cc6 <.LM21>:
     cc6:	86 e0       	ldi	r24, 0x06	; 6
     cc8:	0e 94 70 06 	call	0xce0	; 0xce0 <LCD_SendCommands>

00000ccc <.LM22>:
     ccc:	00 00       	nop
     cce:	2e 96       	adiw	r28, 0x0e	; 14
     cd0:	0f b6       	in	r0, 0x3f	; 63
     cd2:	f8 94       	cli
     cd4:	de bf       	out	0x3e, r29	; 62
     cd6:	0f be       	out	0x3f, r0	; 63
     cd8:	cd bf       	out	0x3d, r28	; 61
     cda:	df 91       	pop	r29
     cdc:	cf 91       	pop	r28
     cde:	08 95       	ret

00000ce0 <LCD_SendCommands>:
     ce0:	cf 93       	push	r28
     ce2:	df 93       	push	r29
     ce4:	cd b7       	in	r28, 0x3d	; 61
     ce6:	de b7       	in	r29, 0x3e	; 62
     ce8:	6d 97       	sbiw	r28, 0x1d	; 29
     cea:	0f b6       	in	r0, 0x3f	; 63
     cec:	f8 94       	cli
     cee:	de bf       	out	0x3e, r29	; 62
     cf0:	0f be       	out	0x3f, r0	; 63
     cf2:	cd bf       	out	0x3d, r28	; 61
     cf4:	8d 8f       	std	Y+29, r24	; 0x1d

00000cf6 <.LM24>:
     cf6:	40 e0       	ldi	r20, 0x00	; 0
     cf8:	60 e0       	ldi	r22, 0x00	; 0
     cfa:	82 e0       	ldi	r24, 0x02	; 2
     cfc:	0e 94 f3 01 	call	0x3e6	; 0x3e6 <SET_Value>

00000d00 <.LM25>:
     d00:	40 e0       	ldi	r20, 0x00	; 0
     d02:	61 e0       	ldi	r22, 0x01	; 1
     d04:	82 e0       	ldi	r24, 0x02	; 2
     d06:	0e 94 f3 01 	call	0x3e6	; 0x3e6 <SET_Value>

00000d0a <.LM26>:
     d0a:	6d 8d       	ldd	r22, Y+29	; 0x1d
     d0c:	82 e0       	ldi	r24, 0x02	; 2
     d0e:	0e 94 de 04 	call	0x9bc	; 0x9bc <SET_Value_4MSB>

00000d12 <.LM27>:
     d12:	41 e0       	ldi	r20, 0x01	; 1
     d14:	62 e0       	ldi	r22, 0x02	; 2
     d16:	82 e0       	ldi	r24, 0x02	; 2
     d18:	0e 94 f3 01 	call	0x3e6	; 0x3e6 <SET_Value>
     d1c:	80 e0       	ldi	r24, 0x00	; 0
     d1e:	90 e0       	ldi	r25, 0x00	; 0
     d20:	a0 ea       	ldi	r26, 0xA0	; 160
     d22:	b0 e4       	ldi	r27, 0x40	; 64
     d24:	8f 87       	std	Y+15, r24	; 0x0f
     d26:	98 8b       	std	Y+16, r25	; 0x10
     d28:	a9 8b       	std	Y+17, r26	; 0x11
     d2a:	ba 8b       	std	Y+18, r27	; 0x12

00000d2c <.LM28>:
     d2c:	20 e0       	ldi	r18, 0x00	; 0
     d2e:	30 e0       	ldi	r19, 0x00	; 0
     d30:	4a ef       	ldi	r20, 0xFA	; 250
     d32:	54 e4       	ldi	r21, 0x44	; 68
     d34:	6f 85       	ldd	r22, Y+15	; 0x0f
     d36:	78 89       	ldd	r23, Y+16	; 0x10
     d38:	89 89       	ldd	r24, Y+17	; 0x11
     d3a:	9a 89       	ldd	r25, Y+18	; 0x12
     d3c:	0e 94 eb 11 	call	0x23d6	; 0x23d6 <__mulsf3>
     d40:	dc 01       	movw	r26, r24
     d42:	cb 01       	movw	r24, r22
     d44:	8b 8b       	std	Y+19, r24	; 0x13
     d46:	9c 8b       	std	Y+20, r25	; 0x14
     d48:	ad 8b       	std	Y+21, r26	; 0x15
     d4a:	be 8b       	std	Y+22, r27	; 0x16

00000d4c <.LM29>:
     d4c:	20 e0       	ldi	r18, 0x00	; 0
     d4e:	30 e0       	ldi	r19, 0x00	; 0
     d50:	40 e8       	ldi	r20, 0x80	; 128
     d52:	5f e3       	ldi	r21, 0x3F	; 63
     d54:	6b 89       	ldd	r22, Y+19	; 0x13
     d56:	7c 89       	ldd	r23, Y+20	; 0x14
     d58:	8d 89       	ldd	r24, Y+21	; 0x15
     d5a:	9e 89       	ldd	r25, Y+22	; 0x16
     d5c:	0e 94 65 11 	call	0x22ca	; 0x22ca <__cmpsf2>
     d60:	88 23       	and	r24, r24
     d62:	2c f4       	brge	.+10     	; 0xd6e <.L35>

00000d64 <.LM30>:
     d64:	81 e0       	ldi	r24, 0x01	; 1
     d66:	90 e0       	ldi	r25, 0x00	; 0
     d68:	98 8f       	std	Y+24, r25	; 0x18
     d6a:	8f 8b       	std	Y+23, r24	; 0x17
     d6c:	3f c0       	rjmp	.+126    	; 0xdec <.L17>

00000d6e <.L35>:
     d6e:	20 e0       	ldi	r18, 0x00	; 0
     d70:	3f ef       	ldi	r19, 0xFF	; 255
     d72:	4f e7       	ldi	r20, 0x7F	; 127
     d74:	57 e4       	ldi	r21, 0x47	; 71
     d76:	6b 89       	ldd	r22, Y+19	; 0x13
     d78:	7c 89       	ldd	r23, Y+20	; 0x14
     d7a:	8d 89       	ldd	r24, Y+21	; 0x15
     d7c:	9e 89       	ldd	r25, Y+22	; 0x16
     d7e:	0e 94 e6 11 	call	0x23cc	; 0x23cc <__gesf2>
     d82:	18 16       	cp	r1, r24
     d84:	4c f5       	brge	.+82     	; 0xdd8 <.L36>

00000d86 <.LM32>:
     d86:	20 e0       	ldi	r18, 0x00	; 0
     d88:	30 e0       	ldi	r19, 0x00	; 0
     d8a:	40 e2       	ldi	r20, 0x20	; 32
     d8c:	51 e4       	ldi	r21, 0x41	; 65
     d8e:	6f 85       	ldd	r22, Y+15	; 0x0f
     d90:	78 89       	ldd	r23, Y+16	; 0x10
     d92:	89 89       	ldd	r24, Y+17	; 0x11
     d94:	9a 89       	ldd	r25, Y+18	; 0x12
     d96:	0e 94 eb 11 	call	0x23d6	; 0x23d6 <__mulsf3>
     d9a:	dc 01       	movw	r26, r24
     d9c:	cb 01       	movw	r24, r22

00000d9e <.LM33>:
     d9e:	bc 01       	movw	r22, r24
     da0:	cd 01       	movw	r24, r26
     da2:	0e 94 6a 11 	call	0x22d4	; 0x22d4 <__fixunssfsi>
     da6:	dc 01       	movw	r26, r24
     da8:	cb 01       	movw	r24, r22
     daa:	98 8f       	std	Y+24, r25	; 0x18
     dac:	8f 8b       	std	Y+23, r24	; 0x17
     dae:	0f c0       	rjmp	.+30     	; 0xdce <.L20>

00000db0 <.L21>:
     db0:	88 ec       	ldi	r24, 0xC8	; 200
     db2:	90 e0       	ldi	r25, 0x00	; 0
     db4:	9a 8f       	std	Y+26, r25	; 0x1a
     db6:	89 8f       	std	Y+25, r24	; 0x19

00000db8 <.LM34>:
     db8:	89 8d       	ldd	r24, Y+25	; 0x19
     dba:	9a 8d       	ldd	r25, Y+26	; 0x1a

00000dbc <.L1^B3>:
     dbc:	01 97       	sbiw	r24, 0x01	; 1
     dbe:	f1 f7       	brne	.-4      	; 0xdbc <.L1^B3>
     dc0:	9a 8f       	std	Y+26, r25	; 0x1a
     dc2:	89 8f       	std	Y+25, r24	; 0x19

00000dc4 <.LM35>:
     dc4:	8f 89       	ldd	r24, Y+23	; 0x17
     dc6:	98 8d       	ldd	r25, Y+24	; 0x18
     dc8:	01 97       	sbiw	r24, 0x01	; 1
     dca:	98 8f       	std	Y+24, r25	; 0x18
     dcc:	8f 8b       	std	Y+23, r24	; 0x17

00000dce <.L20>:
     dce:	8f 89       	ldd	r24, Y+23	; 0x17
     dd0:	98 8d       	ldd	r25, Y+24	; 0x18
     dd2:	89 2b       	or	r24, r25
     dd4:	69 f7       	brne	.-38     	; 0xdb0 <.L21>

00000dd6 <.LM37>:
     dd6:	14 c0       	rjmp	.+40     	; 0xe00 <.L22>

00000dd8 <.L36>:
     dd8:	6b 89       	ldd	r22, Y+19	; 0x13
     dda:	7c 89       	ldd	r23, Y+20	; 0x14
     ddc:	8d 89       	ldd	r24, Y+21	; 0x15
     dde:	9e 89       	ldd	r25, Y+22	; 0x16
     de0:	0e 94 6a 11 	call	0x22d4	; 0x22d4 <__fixunssfsi>
     de4:	dc 01       	movw	r26, r24
     de6:	cb 01       	movw	r24, r22
     de8:	98 8f       	std	Y+24, r25	; 0x18
     dea:	8f 8b       	std	Y+23, r24	; 0x17

00000dec <.L17>:
     dec:	8f 89       	ldd	r24, Y+23	; 0x17
     dee:	98 8d       	ldd	r25, Y+24	; 0x18
     df0:	9c 8f       	std	Y+28, r25	; 0x1c
     df2:	8b 8f       	std	Y+27, r24	; 0x1b

00000df4 <.LM39>:
     df4:	8b 8d       	ldd	r24, Y+27	; 0x1b
     df6:	9c 8d       	ldd	r25, Y+28	; 0x1c

00000df8 <.L1^B4>:
     df8:	01 97       	sbiw	r24, 0x01	; 1
     dfa:	f1 f7       	brne	.-4      	; 0xdf8 <.L1^B4>
     dfc:	9c 8f       	std	Y+28, r25	; 0x1c
     dfe:	8b 8f       	std	Y+27, r24	; 0x1b

00000e00 <.L22>:
     e00:	40 e0       	ldi	r20, 0x00	; 0
     e02:	62 e0       	ldi	r22, 0x02	; 2
     e04:	82 e0       	ldi	r24, 0x02	; 2
     e06:	0e 94 f3 01 	call	0x3e6	; 0x3e6 <SET_Value>
     e0a:	80 e0       	ldi	r24, 0x00	; 0
     e0c:	90 e0       	ldi	r25, 0x00	; 0
     e0e:	a0 e8       	ldi	r26, 0x80	; 128
     e10:	bf e3       	ldi	r27, 0x3F	; 63
     e12:	89 83       	std	Y+1, r24	; 0x01
     e14:	9a 83       	std	Y+2, r25	; 0x02
     e16:	ab 83       	std	Y+3, r26	; 0x03
     e18:	bc 83       	std	Y+4, r27	; 0x04

00000e1a <.LM41>:
     e1a:	20 e0       	ldi	r18, 0x00	; 0
     e1c:	30 e0       	ldi	r19, 0x00	; 0
     e1e:	4a ef       	ldi	r20, 0xFA	; 250
     e20:	54 e4       	ldi	r21, 0x44	; 68
     e22:	69 81       	ldd	r22, Y+1	; 0x01
     e24:	7a 81       	ldd	r23, Y+2	; 0x02
     e26:	8b 81       	ldd	r24, Y+3	; 0x03
     e28:	9c 81       	ldd	r25, Y+4	; 0x04
     e2a:	0e 94 eb 11 	call	0x23d6	; 0x23d6 <__mulsf3>
     e2e:	dc 01       	movw	r26, r24
     e30:	cb 01       	movw	r24, r22
     e32:	8d 83       	std	Y+5, r24	; 0x05
     e34:	9e 83       	std	Y+6, r25	; 0x06
     e36:	af 83       	std	Y+7, r26	; 0x07
     e38:	b8 87       	std	Y+8, r27	; 0x08

00000e3a <.LM42>:
     e3a:	20 e0       	ldi	r18, 0x00	; 0
     e3c:	30 e0       	ldi	r19, 0x00	; 0
     e3e:	40 e8       	ldi	r20, 0x80	; 128
     e40:	5f e3       	ldi	r21, 0x3F	; 63
     e42:	6d 81       	ldd	r22, Y+5	; 0x05
     e44:	7e 81       	ldd	r23, Y+6	; 0x06
     e46:	8f 81       	ldd	r24, Y+7	; 0x07
     e48:	98 85       	ldd	r25, Y+8	; 0x08
     e4a:	0e 94 65 11 	call	0x22ca	; 0x22ca <__cmpsf2>
     e4e:	88 23       	and	r24, r24
     e50:	2c f4       	brge	.+10     	; 0xe5c <.L37>

00000e52 <.LM43>:
     e52:	81 e0       	ldi	r24, 0x01	; 1
     e54:	90 e0       	ldi	r25, 0x00	; 0
     e56:	9a 87       	std	Y+10, r25	; 0x0a
     e58:	89 87       	std	Y+9, r24	; 0x09
     e5a:	40 c0       	rjmp	.+128    	; 0xedc <.L25>

00000e5c <.L37>:
     e5c:	20 e0       	ldi	r18, 0x00	; 0
     e5e:	3f ef       	ldi	r19, 0xFF	; 255
     e60:	4f e7       	ldi	r20, 0x7F	; 127
     e62:	57 e4       	ldi	r21, 0x47	; 71
     e64:	6d 81       	ldd	r22, Y+5	; 0x05
     e66:	7e 81       	ldd	r23, Y+6	; 0x06
     e68:	8f 81       	ldd	r24, Y+7	; 0x07
     e6a:	98 85       	ldd	r25, Y+8	; 0x08
     e6c:	0e 94 e6 11 	call	0x23cc	; 0x23cc <__gesf2>
     e70:	18 16       	cp	r1, r24
     e72:	54 f5       	brge	.+84     	; 0xec8 <.L38>

00000e74 <.LM45>:
     e74:	20 e0       	ldi	r18, 0x00	; 0
     e76:	30 e0       	ldi	r19, 0x00	; 0
     e78:	40 e2       	ldi	r20, 0x20	; 32
     e7a:	51 e4       	ldi	r21, 0x41	; 65
     e7c:	69 81       	ldd	r22, Y+1	; 0x01
     e7e:	7a 81       	ldd	r23, Y+2	; 0x02
     e80:	8b 81       	ldd	r24, Y+3	; 0x03
     e82:	9c 81       	ldd	r25, Y+4	; 0x04
     e84:	0e 94 eb 11 	call	0x23d6	; 0x23d6 <__mulsf3>
     e88:	dc 01       	movw	r26, r24
     e8a:	cb 01       	movw	r24, r22

00000e8c <.LM46>:
     e8c:	bc 01       	movw	r22, r24
     e8e:	cd 01       	movw	r24, r26
     e90:	0e 94 6a 11 	call	0x22d4	; 0x22d4 <__fixunssfsi>
     e94:	dc 01       	movw	r26, r24
     e96:	cb 01       	movw	r24, r22
     e98:	9a 87       	std	Y+10, r25	; 0x0a
     e9a:	89 87       	std	Y+9, r24	; 0x09
     e9c:	0f c0       	rjmp	.+30     	; 0xebc <.L28>

00000e9e <.L29>:
     e9e:	88 ec       	ldi	r24, 0xC8	; 200
     ea0:	90 e0       	ldi	r25, 0x00	; 0
     ea2:	9c 87       	std	Y+12, r25	; 0x0c
     ea4:	8b 87       	std	Y+11, r24	; 0x0b

00000ea6 <.LM47>:
     ea6:	8b 85       	ldd	r24, Y+11	; 0x0b
     ea8:	9c 85       	ldd	r25, Y+12	; 0x0c

00000eaa <.L1^B5>:
     eaa:	01 97       	sbiw	r24, 0x01	; 1
     eac:	f1 f7       	brne	.-4      	; 0xeaa <.L1^B5>
     eae:	9c 87       	std	Y+12, r25	; 0x0c
     eb0:	8b 87       	std	Y+11, r24	; 0x0b

00000eb2 <.LM48>:
     eb2:	89 85       	ldd	r24, Y+9	; 0x09
     eb4:	9a 85       	ldd	r25, Y+10	; 0x0a
     eb6:	01 97       	sbiw	r24, 0x01	; 1
     eb8:	9a 87       	std	Y+10, r25	; 0x0a
     eba:	89 87       	std	Y+9, r24	; 0x09

00000ebc <.L28>:
     ebc:	89 85       	ldd	r24, Y+9	; 0x09
     ebe:	9a 85       	ldd	r25, Y+10	; 0x0a
     ec0:	89 2b       	or	r24, r25
     ec2:	69 f7       	brne	.-38     	; 0xe9e <.L29>

00000ec4 <.LM50>:
	...

00000ec6 <.LM51>:
     ec6:	14 c0       	rjmp	.+40     	; 0xef0 <.L39>

00000ec8 <.L38>:
     ec8:	6d 81       	ldd	r22, Y+5	; 0x05
     eca:	7e 81       	ldd	r23, Y+6	; 0x06
     ecc:	8f 81       	ldd	r24, Y+7	; 0x07
     ece:	98 85       	ldd	r25, Y+8	; 0x08
     ed0:	0e 94 6a 11 	call	0x22d4	; 0x22d4 <__fixunssfsi>
     ed4:	dc 01       	movw	r26, r24
     ed6:	cb 01       	movw	r24, r22
     ed8:	9a 87       	std	Y+10, r25	; 0x0a
     eda:	89 87       	std	Y+9, r24	; 0x09

00000edc <.L25>:
     edc:	89 85       	ldd	r24, Y+9	; 0x09
     ede:	9a 85       	ldd	r25, Y+10	; 0x0a
     ee0:	9e 87       	std	Y+14, r25	; 0x0e
     ee2:	8d 87       	std	Y+13, r24	; 0x0d

00000ee4 <.LM53>:
     ee4:	8d 85       	ldd	r24, Y+13	; 0x0d
     ee6:	9e 85       	ldd	r25, Y+14	; 0x0e

00000ee8 <.L1^B6>:
     ee8:	01 97       	sbiw	r24, 0x01	; 1
     eea:	f1 f7       	brne	.-4      	; 0xee8 <.L1^B6>
     eec:	9e 87       	std	Y+14, r25	; 0x0e
     eee:	8d 87       	std	Y+13, r24	; 0x0d

00000ef0 <.L39>:
     ef0:	00 00       	nop
     ef2:	6d 96       	adiw	r28, 0x1d	; 29
     ef4:	0f b6       	in	r0, 0x3f	; 63
     ef6:	f8 94       	cli
     ef8:	de bf       	out	0x3e, r29	; 62
     efa:	0f be       	out	0x3f, r0	; 63
     efc:	cd bf       	out	0x3d, r28	; 61
     efe:	df 91       	pop	r29
     f00:	cf 91       	pop	r28
     f02:	08 95       	ret

00000f04 <LCD_SendData>:
     f04:	cf 93       	push	r28
     f06:	df 93       	push	r29
     f08:	cd b7       	in	r28, 0x3d	; 61
     f0a:	de b7       	in	r29, 0x3e	; 62
     f0c:	6d 97       	sbiw	r28, 0x1d	; 29
     f0e:	0f b6       	in	r0, 0x3f	; 63
     f10:	f8 94       	cli
     f12:	de bf       	out	0x3e, r29	; 62
     f14:	0f be       	out	0x3f, r0	; 63
     f16:	cd bf       	out	0x3d, r28	; 61
     f18:	8d 8f       	std	Y+29, r24	; 0x1d

00000f1a <.LM56>:
     f1a:	41 e0       	ldi	r20, 0x01	; 1
     f1c:	60 e0       	ldi	r22, 0x00	; 0
     f1e:	82 e0       	ldi	r24, 0x02	; 2
     f20:	0e 94 f3 01 	call	0x3e6	; 0x3e6 <SET_Value>

00000f24 <.LM57>:
     f24:	40 e0       	ldi	r20, 0x00	; 0
     f26:	61 e0       	ldi	r22, 0x01	; 1
     f28:	82 e0       	ldi	r24, 0x02	; 2
     f2a:	0e 94 f3 01 	call	0x3e6	; 0x3e6 <SET_Value>

00000f2e <.LM58>:
     f2e:	6d 8d       	ldd	r22, Y+29	; 0x1d
     f30:	82 e0       	ldi	r24, 0x02	; 2
     f32:	0e 94 de 04 	call	0x9bc	; 0x9bc <SET_Value_4MSB>

00000f36 <.LM59>:
     f36:	41 e0       	ldi	r20, 0x01	; 1
     f38:	62 e0       	ldi	r22, 0x02	; 2
     f3a:	82 e0       	ldi	r24, 0x02	; 2
     f3c:	0e 94 f3 01 	call	0x3e6	; 0x3e6 <SET_Value>
     f40:	80 e0       	ldi	r24, 0x00	; 0
     f42:	90 e0       	ldi	r25, 0x00	; 0
     f44:	a0 ea       	ldi	r26, 0xA0	; 160
     f46:	b0 e4       	ldi	r27, 0x40	; 64
     f48:	8f 87       	std	Y+15, r24	; 0x0f
     f4a:	98 8b       	std	Y+16, r25	; 0x10
     f4c:	a9 8b       	std	Y+17, r26	; 0x11
     f4e:	ba 8b       	std	Y+18, r27	; 0x12

00000f50 <.LM60>:
     f50:	20 e0       	ldi	r18, 0x00	; 0
     f52:	30 e0       	ldi	r19, 0x00	; 0
     f54:	4a ef       	ldi	r20, 0xFA	; 250
     f56:	54 e4       	ldi	r21, 0x44	; 68
     f58:	6f 85       	ldd	r22, Y+15	; 0x0f
     f5a:	78 89       	ldd	r23, Y+16	; 0x10
     f5c:	89 89       	ldd	r24, Y+17	; 0x11
     f5e:	9a 89       	ldd	r25, Y+18	; 0x12
     f60:	0e 94 eb 11 	call	0x23d6	; 0x23d6 <__mulsf3>
     f64:	dc 01       	movw	r26, r24
     f66:	cb 01       	movw	r24, r22
     f68:	8b 8b       	std	Y+19, r24	; 0x13
     f6a:	9c 8b       	std	Y+20, r25	; 0x14
     f6c:	ad 8b       	std	Y+21, r26	; 0x15
     f6e:	be 8b       	std	Y+22, r27	; 0x16

00000f70 <.LM61>:
     f70:	20 e0       	ldi	r18, 0x00	; 0
     f72:	30 e0       	ldi	r19, 0x00	; 0
     f74:	40 e8       	ldi	r20, 0x80	; 128
     f76:	5f e3       	ldi	r21, 0x3F	; 63
     f78:	6b 89       	ldd	r22, Y+19	; 0x13
     f7a:	7c 89       	ldd	r23, Y+20	; 0x14
     f7c:	8d 89       	ldd	r24, Y+21	; 0x15
     f7e:	9e 89       	ldd	r25, Y+22	; 0x16
     f80:	0e 94 65 11 	call	0x22ca	; 0x22ca <__cmpsf2>
     f84:	88 23       	and	r24, r24
     f86:	2c f4       	brge	.+10     	; 0xf92 <.L61>

00000f88 <.LM62>:
     f88:	81 e0       	ldi	r24, 0x01	; 1
     f8a:	90 e0       	ldi	r25, 0x00	; 0
     f8c:	98 8f       	std	Y+24, r25	; 0x18
     f8e:	8f 8b       	std	Y+23, r24	; 0x17
     f90:	3f c0       	rjmp	.+126    	; 0x1010 <.L43>

00000f92 <.L61>:
     f92:	20 e0       	ldi	r18, 0x00	; 0
     f94:	3f ef       	ldi	r19, 0xFF	; 255
     f96:	4f e7       	ldi	r20, 0x7F	; 127
     f98:	57 e4       	ldi	r21, 0x47	; 71
     f9a:	6b 89       	ldd	r22, Y+19	; 0x13
     f9c:	7c 89       	ldd	r23, Y+20	; 0x14
     f9e:	8d 89       	ldd	r24, Y+21	; 0x15
     fa0:	9e 89       	ldd	r25, Y+22	; 0x16
     fa2:	0e 94 e6 11 	call	0x23cc	; 0x23cc <__gesf2>
     fa6:	18 16       	cp	r1, r24
     fa8:	4c f5       	brge	.+82     	; 0xffc <.L62>

00000faa <.LM64>:
     faa:	20 e0       	ldi	r18, 0x00	; 0
     fac:	30 e0       	ldi	r19, 0x00	; 0
     fae:	40 e2       	ldi	r20, 0x20	; 32
     fb0:	51 e4       	ldi	r21, 0x41	; 65
     fb2:	6f 85       	ldd	r22, Y+15	; 0x0f
     fb4:	78 89       	ldd	r23, Y+16	; 0x10
     fb6:	89 89       	ldd	r24, Y+17	; 0x11
     fb8:	9a 89       	ldd	r25, Y+18	; 0x12
     fba:	0e 94 eb 11 	call	0x23d6	; 0x23d6 <__mulsf3>
     fbe:	dc 01       	movw	r26, r24
     fc0:	cb 01       	movw	r24, r22

00000fc2 <.LM65>:
     fc2:	bc 01       	movw	r22, r24
     fc4:	cd 01       	movw	r24, r26
     fc6:	0e 94 6a 11 	call	0x22d4	; 0x22d4 <__fixunssfsi>
     fca:	dc 01       	movw	r26, r24
     fcc:	cb 01       	movw	r24, r22
     fce:	98 8f       	std	Y+24, r25	; 0x18
     fd0:	8f 8b       	std	Y+23, r24	; 0x17
     fd2:	0f c0       	rjmp	.+30     	; 0xff2 <.L46>

00000fd4 <.L47>:
     fd4:	88 ec       	ldi	r24, 0xC8	; 200
     fd6:	90 e0       	ldi	r25, 0x00	; 0
     fd8:	9a 8f       	std	Y+26, r25	; 0x1a
     fda:	89 8f       	std	Y+25, r24	; 0x19

00000fdc <.LM66>:
     fdc:	89 8d       	ldd	r24, Y+25	; 0x19
     fde:	9a 8d       	ldd	r25, Y+26	; 0x1a

00000fe0 <.L1^B7>:
     fe0:	01 97       	sbiw	r24, 0x01	; 1
     fe2:	f1 f7       	brne	.-4      	; 0xfe0 <.L1^B7>
     fe4:	9a 8f       	std	Y+26, r25	; 0x1a
     fe6:	89 8f       	std	Y+25, r24	; 0x19

00000fe8 <.LM67>:
     fe8:	8f 89       	ldd	r24, Y+23	; 0x17
     fea:	98 8d       	ldd	r25, Y+24	; 0x18
     fec:	01 97       	sbiw	r24, 0x01	; 1
     fee:	98 8f       	std	Y+24, r25	; 0x18
     ff0:	8f 8b       	std	Y+23, r24	; 0x17

00000ff2 <.L46>:
     ff2:	8f 89       	ldd	r24, Y+23	; 0x17
     ff4:	98 8d       	ldd	r25, Y+24	; 0x18
     ff6:	89 2b       	or	r24, r25
     ff8:	69 f7       	brne	.-38     	; 0xfd4 <.L47>

00000ffa <.LM69>:
     ffa:	14 c0       	rjmp	.+40     	; 0x1024 <.L48>

00000ffc <.L62>:
     ffc:	6b 89       	ldd	r22, Y+19	; 0x13
     ffe:	7c 89       	ldd	r23, Y+20	; 0x14
    1000:	8d 89       	ldd	r24, Y+21	; 0x15
    1002:	9e 89       	ldd	r25, Y+22	; 0x16
    1004:	0e 94 6a 11 	call	0x22d4	; 0x22d4 <__fixunssfsi>
    1008:	dc 01       	movw	r26, r24
    100a:	cb 01       	movw	r24, r22
    100c:	98 8f       	std	Y+24, r25	; 0x18
    100e:	8f 8b       	std	Y+23, r24	; 0x17

00001010 <.L43>:
    1010:	8f 89       	ldd	r24, Y+23	; 0x17
    1012:	98 8d       	ldd	r25, Y+24	; 0x18
    1014:	9c 8f       	std	Y+28, r25	; 0x1c
    1016:	8b 8f       	std	Y+27, r24	; 0x1b

00001018 <.LM71>:
    1018:	8b 8d       	ldd	r24, Y+27	; 0x1b
    101a:	9c 8d       	ldd	r25, Y+28	; 0x1c

0000101c <.L1^B8>:
    101c:	01 97       	sbiw	r24, 0x01	; 1
    101e:	f1 f7       	brne	.-4      	; 0x101c <.L1^B8>
    1020:	9c 8f       	std	Y+28, r25	; 0x1c
    1022:	8b 8f       	std	Y+27, r24	; 0x1b

00001024 <.L48>:
    1024:	40 e0       	ldi	r20, 0x00	; 0
    1026:	62 e0       	ldi	r22, 0x02	; 2
    1028:	82 e0       	ldi	r24, 0x02	; 2
    102a:	0e 94 f3 01 	call	0x3e6	; 0x3e6 <SET_Value>
    102e:	80 e0       	ldi	r24, 0x00	; 0
    1030:	90 e0       	ldi	r25, 0x00	; 0
    1032:	a0 e8       	ldi	r26, 0x80	; 128
    1034:	bf e3       	ldi	r27, 0x3F	; 63
    1036:	89 83       	std	Y+1, r24	; 0x01
    1038:	9a 83       	std	Y+2, r25	; 0x02
    103a:	ab 83       	std	Y+3, r26	; 0x03
    103c:	bc 83       	std	Y+4, r27	; 0x04

0000103e <.LM73>:
    103e:	20 e0       	ldi	r18, 0x00	; 0
    1040:	30 e0       	ldi	r19, 0x00	; 0
    1042:	4a ef       	ldi	r20, 0xFA	; 250
    1044:	54 e4       	ldi	r21, 0x44	; 68
    1046:	69 81       	ldd	r22, Y+1	; 0x01
    1048:	7a 81       	ldd	r23, Y+2	; 0x02
    104a:	8b 81       	ldd	r24, Y+3	; 0x03
    104c:	9c 81       	ldd	r25, Y+4	; 0x04
    104e:	0e 94 eb 11 	call	0x23d6	; 0x23d6 <__mulsf3>
    1052:	dc 01       	movw	r26, r24
    1054:	cb 01       	movw	r24, r22
    1056:	8d 83       	std	Y+5, r24	; 0x05
    1058:	9e 83       	std	Y+6, r25	; 0x06
    105a:	af 83       	std	Y+7, r26	; 0x07
    105c:	b8 87       	std	Y+8, r27	; 0x08

0000105e <.LM74>:
    105e:	20 e0       	ldi	r18, 0x00	; 0
    1060:	30 e0       	ldi	r19, 0x00	; 0
    1062:	40 e8       	ldi	r20, 0x80	; 128
    1064:	5f e3       	ldi	r21, 0x3F	; 63
    1066:	6d 81       	ldd	r22, Y+5	; 0x05
    1068:	7e 81       	ldd	r23, Y+6	; 0x06
    106a:	8f 81       	ldd	r24, Y+7	; 0x07
    106c:	98 85       	ldd	r25, Y+8	; 0x08
    106e:	0e 94 65 11 	call	0x22ca	; 0x22ca <__cmpsf2>
    1072:	88 23       	and	r24, r24
    1074:	2c f4       	brge	.+10     	; 0x1080 <.L63>

00001076 <.LM75>:
    1076:	81 e0       	ldi	r24, 0x01	; 1
    1078:	90 e0       	ldi	r25, 0x00	; 0
    107a:	9a 87       	std	Y+10, r25	; 0x0a
    107c:	89 87       	std	Y+9, r24	; 0x09
    107e:	40 c0       	rjmp	.+128    	; 0x1100 <.L51>

00001080 <.L63>:
    1080:	20 e0       	ldi	r18, 0x00	; 0
    1082:	3f ef       	ldi	r19, 0xFF	; 255
    1084:	4f e7       	ldi	r20, 0x7F	; 127
    1086:	57 e4       	ldi	r21, 0x47	; 71
    1088:	6d 81       	ldd	r22, Y+5	; 0x05
    108a:	7e 81       	ldd	r23, Y+6	; 0x06
    108c:	8f 81       	ldd	r24, Y+7	; 0x07
    108e:	98 85       	ldd	r25, Y+8	; 0x08
    1090:	0e 94 e6 11 	call	0x23cc	; 0x23cc <__gesf2>
    1094:	18 16       	cp	r1, r24
    1096:	54 f5       	brge	.+84     	; 0x10ec <.L64>

00001098 <.LM77>:
    1098:	20 e0       	ldi	r18, 0x00	; 0
    109a:	30 e0       	ldi	r19, 0x00	; 0
    109c:	40 e2       	ldi	r20, 0x20	; 32
    109e:	51 e4       	ldi	r21, 0x41	; 65
    10a0:	69 81       	ldd	r22, Y+1	; 0x01
    10a2:	7a 81       	ldd	r23, Y+2	; 0x02
    10a4:	8b 81       	ldd	r24, Y+3	; 0x03
    10a6:	9c 81       	ldd	r25, Y+4	; 0x04
    10a8:	0e 94 eb 11 	call	0x23d6	; 0x23d6 <__mulsf3>
    10ac:	dc 01       	movw	r26, r24
    10ae:	cb 01       	movw	r24, r22

000010b0 <.LM78>:
    10b0:	bc 01       	movw	r22, r24
    10b2:	cd 01       	movw	r24, r26
    10b4:	0e 94 6a 11 	call	0x22d4	; 0x22d4 <__fixunssfsi>
    10b8:	dc 01       	movw	r26, r24
    10ba:	cb 01       	movw	r24, r22
    10bc:	9a 87       	std	Y+10, r25	; 0x0a
    10be:	89 87       	std	Y+9, r24	; 0x09
    10c0:	0f c0       	rjmp	.+30     	; 0x10e0 <.L54>

000010c2 <.L55>:
    10c2:	88 ec       	ldi	r24, 0xC8	; 200
    10c4:	90 e0       	ldi	r25, 0x00	; 0
    10c6:	9c 87       	std	Y+12, r25	; 0x0c
    10c8:	8b 87       	std	Y+11, r24	; 0x0b

000010ca <.LM79>:
    10ca:	8b 85       	ldd	r24, Y+11	; 0x0b
    10cc:	9c 85       	ldd	r25, Y+12	; 0x0c

000010ce <.L1^B9>:
    10ce:	01 97       	sbiw	r24, 0x01	; 1
    10d0:	f1 f7       	brne	.-4      	; 0x10ce <.L1^B9>
    10d2:	9c 87       	std	Y+12, r25	; 0x0c
    10d4:	8b 87       	std	Y+11, r24	; 0x0b

000010d6 <.LM80>:
    10d6:	89 85       	ldd	r24, Y+9	; 0x09
    10d8:	9a 85       	ldd	r25, Y+10	; 0x0a
    10da:	01 97       	sbiw	r24, 0x01	; 1
    10dc:	9a 87       	std	Y+10, r25	; 0x0a
    10de:	89 87       	std	Y+9, r24	; 0x09

000010e0 <.L54>:
    10e0:	89 85       	ldd	r24, Y+9	; 0x09
    10e2:	9a 85       	ldd	r25, Y+10	; 0x0a
    10e4:	89 2b       	or	r24, r25
    10e6:	69 f7       	brne	.-38     	; 0x10c2 <.L55>

000010e8 <.LM82>:
	...

000010ea <.LM83>:
    10ea:	14 c0       	rjmp	.+40     	; 0x1114 <.L65>

000010ec <.L64>:
    10ec:	6d 81       	ldd	r22, Y+5	; 0x05
    10ee:	7e 81       	ldd	r23, Y+6	; 0x06
    10f0:	8f 81       	ldd	r24, Y+7	; 0x07
    10f2:	98 85       	ldd	r25, Y+8	; 0x08
    10f4:	0e 94 6a 11 	call	0x22d4	; 0x22d4 <__fixunssfsi>
    10f8:	dc 01       	movw	r26, r24
    10fa:	cb 01       	movw	r24, r22
    10fc:	9a 87       	std	Y+10, r25	; 0x0a
    10fe:	89 87       	std	Y+9, r24	; 0x09

00001100 <.L51>:
    1100:	89 85       	ldd	r24, Y+9	; 0x09
    1102:	9a 85       	ldd	r25, Y+10	; 0x0a
    1104:	9e 87       	std	Y+14, r25	; 0x0e
    1106:	8d 87       	std	Y+13, r24	; 0x0d

00001108 <.LM85>:
    1108:	8d 85       	ldd	r24, Y+13	; 0x0d
    110a:	9e 85       	ldd	r25, Y+14	; 0x0e

0000110c <.L1^B10>:
    110c:	01 97       	sbiw	r24, 0x01	; 1
    110e:	f1 f7       	brne	.-4      	; 0x110c <.L1^B10>
    1110:	9e 87       	std	Y+14, r25	; 0x0e
    1112:	8d 87       	std	Y+13, r24	; 0x0d

00001114 <.L65>:
    1114:	00 00       	nop
    1116:	6d 96       	adiw	r28, 0x1d	; 29
    1118:	0f b6       	in	r0, 0x3f	; 63
    111a:	f8 94       	cli
    111c:	de bf       	out	0x3e, r29	; 62
    111e:	0f be       	out	0x3f, r0	; 63
    1120:	cd bf       	out	0x3d, r28	; 61
    1122:	df 91       	pop	r29
    1124:	cf 91       	pop	r28
    1126:	08 95       	ret

00001128 <LCD_SendData_4BitMode>:
    1128:	cf 93       	push	r28
    112a:	df 93       	push	r29
    112c:	0f 92       	push	r0
    112e:	cd b7       	in	r28, 0x3d	; 61
    1130:	de b7       	in	r29, 0x3e	; 62
    1132:	89 83       	std	Y+1, r24	; 0x01

00001134 <.LM88>:
    1134:	89 81       	ldd	r24, Y+1	; 0x01
    1136:	82 95       	swap	r24
    1138:	8f 70       	andi	r24, 0x0F	; 15
    113a:	0e 94 82 07 	call	0xf04	; 0xf04 <LCD_SendData>

0000113e <.LM89>:
    113e:	89 81       	ldd	r24, Y+1	; 0x01
    1140:	0e 94 82 07 	call	0xf04	; 0xf04 <LCD_SendData>

00001144 <.LM90>:
    1144:	00 00       	nop
    1146:	0f 90       	pop	r0
    1148:	df 91       	pop	r29
    114a:	cf 91       	pop	r28
    114c:	08 95       	ret

0000114e <LCD_SendNumbers>:
    114e:	cf 93       	push	r28
    1150:	df 93       	push	r29
    1152:	cd b7       	in	r28, 0x3d	; 61
    1154:	de b7       	in	r29, 0x3e	; 62
    1156:	29 97       	sbiw	r28, 0x09	; 9
    1158:	0f b6       	in	r0, 0x3f	; 63
    115a:	f8 94       	cli
    115c:	de bf       	out	0x3e, r29	; 62
    115e:	0f be       	out	0x3f, r0	; 63
    1160:	cd bf       	out	0x3d, r28	; 61
    1162:	99 87       	std	Y+9, r25	; 0x09
    1164:	88 87       	std	Y+8, r24	; 0x08

00001166 <.LM92>:
    1166:	19 82       	std	Y+1, r1	; 0x01

00001168 <.LM93>:
    1168:	88 85       	ldd	r24, Y+8	; 0x08
    116a:	99 85       	ldd	r25, Y+9	; 0x09
    116c:	89 2b       	or	r24, r25
    116e:	d9 f5       	brne	.+118    	; 0x11e6 <.L70>

00001170 <.LM94>:
    1170:	80 e3       	ldi	r24, 0x30	; 48
    1172:	0e 94 94 08 	call	0x1128	; 0x1128 <LCD_SendData_4BitMode>
    1176:	3b c0       	rjmp	.+118    	; 0x11ee <.L69>

00001178 <.L71>:
    1178:	48 85       	ldd	r20, Y+8	; 0x08
    117a:	59 85       	ldd	r21, Y+9	; 0x09
    117c:	9a 01       	movw	r18, r20
    117e:	ad ec       	ldi	r26, 0xCD	; 205
    1180:	bc ec       	ldi	r27, 0xCC	; 204
    1182:	0e 94 4b 11 	call	0x2296	; 0x2296 <__umulhisi3>
    1186:	9c 01       	movw	r18, r24
    1188:	36 95       	lsr	r19
    118a:	27 95       	ror	r18
    118c:	36 95       	lsr	r19
    118e:	27 95       	ror	r18
    1190:	36 95       	lsr	r19
    1192:	27 95       	ror	r18
    1194:	c9 01       	movw	r24, r18
    1196:	88 0f       	add	r24, r24
    1198:	99 1f       	adc	r25, r25
    119a:	88 0f       	add	r24, r24
    119c:	99 1f       	adc	r25, r25
    119e:	82 0f       	add	r24, r18
    11a0:	93 1f       	adc	r25, r19
    11a2:	88 0f       	add	r24, r24
    11a4:	99 1f       	adc	r25, r25
    11a6:	9a 01       	movw	r18, r20
    11a8:	28 1b       	sub	r18, r24
    11aa:	39 0b       	sbc	r19, r25

000011ac <.LM96>:
    11ac:	89 81       	ldd	r24, Y+1	; 0x01
    11ae:	88 2f       	mov	r24, r24
    11b0:	90 e0       	ldi	r25, 0x00	; 0

000011b2 <.LM97>:
    11b2:	42 2f       	mov	r20, r18
    11b4:	9e 01       	movw	r18, r28
    11b6:	2d 5f       	subi	r18, 0xFD	; 253
    11b8:	3f 4f       	sbci	r19, 0xFF	; 255
    11ba:	82 0f       	add	r24, r18
    11bc:	93 1f       	adc	r25, r19
    11be:	fc 01       	movw	r30, r24
    11c0:	40 83       	st	Z, r20

000011c2 <.LM98>:
    11c2:	88 85       	ldd	r24, Y+8	; 0x08
    11c4:	99 85       	ldd	r25, Y+9	; 0x09
    11c6:	9c 01       	movw	r18, r24
    11c8:	ad ec       	ldi	r26, 0xCD	; 205
    11ca:	bc ec       	ldi	r27, 0xCC	; 204
    11cc:	0e 94 4b 11 	call	0x2296	; 0x2296 <__umulhisi3>
    11d0:	96 95       	lsr	r25
    11d2:	87 95       	ror	r24
    11d4:	96 95       	lsr	r25
    11d6:	87 95       	ror	r24
    11d8:	96 95       	lsr	r25
    11da:	87 95       	ror	r24
    11dc:	99 87       	std	Y+9, r25	; 0x09
    11de:	88 87       	std	Y+8, r24	; 0x08

000011e0 <.LM99>:
    11e0:	89 81       	ldd	r24, Y+1	; 0x01
    11e2:	8f 5f       	subi	r24, 0xFF	; 255
    11e4:	89 83       	std	Y+1, r24	; 0x01

000011e6 <.L70>:
    11e6:	88 85       	ldd	r24, Y+8	; 0x08
    11e8:	99 85       	ldd	r25, Y+9	; 0x09
    11ea:	89 2b       	or	r24, r25
    11ec:	29 f6       	brne	.-118    	; 0x1178 <.L71>

000011ee <.L69>:
    11ee:	89 81       	ldd	r24, Y+1	; 0x01
    11f0:	81 50       	subi	r24, 0x01	; 1

000011f2 <.LM102>:
    11f2:	8a 83       	std	Y+2, r24	; 0x02

000011f4 <.LM103>:
    11f4:	11 c0       	rjmp	.+34     	; 0x1218 <.L72>

000011f6 <.L73>:
    11f6:	8a 81       	ldd	r24, Y+2	; 0x02
    11f8:	08 2e       	mov	r0, r24
    11fa:	00 0c       	add	r0, r0
    11fc:	99 0b       	sbc	r25, r25
    11fe:	9e 01       	movw	r18, r28
    1200:	2d 5f       	subi	r18, 0xFD	; 253
    1202:	3f 4f       	sbci	r19, 0xFF	; 255
    1204:	82 0f       	add	r24, r18
    1206:	93 1f       	adc	r25, r19
    1208:	fc 01       	movw	r30, r24
    120a:	80 81       	ld	r24, Z

0000120c <.LM105>:
    120c:	80 5d       	subi	r24, 0xD0	; 208
    120e:	0e 94 94 08 	call	0x1128	; 0x1128 <LCD_SendData_4BitMode>

00001212 <.LM106>:
    1212:	8a 81       	ldd	r24, Y+2	; 0x02
    1214:	81 50       	subi	r24, 0x01	; 1
    1216:	8a 83       	std	Y+2, r24	; 0x02

00001218 <.L72>:
    1218:	8a 81       	ldd	r24, Y+2	; 0x02
    121a:	88 23       	and	r24, r24
    121c:	64 f7       	brge	.-40     	; 0x11f6 <.L73>

0000121e <.LBE70>:
    121e:	00 00       	nop
    1220:	29 96       	adiw	r28, 0x09	; 9
    1222:	0f b6       	in	r0, 0x3f	; 63
    1224:	f8 94       	cli
    1226:	de bf       	out	0x3e, r29	; 62
    1228:	0f be       	out	0x3f, r0	; 63
    122a:	cd bf       	out	0x3d, r28	; 61
    122c:	df 91       	pop	r29
    122e:	cf 91       	pop	r28
    1230:	08 95       	ret

00001232 <LCD_String>:
    1232:	cf 93       	push	r28
    1234:	df 93       	push	r29
    1236:	00 d0       	rcall	.+0      	; 0x1238 <L0^A>

00001238 <L0^A>:
    1238:	0f 92       	push	r0
    123a:	cd b7       	in	r28, 0x3d	; 61
    123c:	de b7       	in	r29, 0x3e	; 62
    123e:	9b 83       	std	Y+3, r25	; 0x03
    1240:	8a 83       	std	Y+2, r24	; 0x02

00001242 <.LBB71>:
    1242:	19 82       	std	Y+1, r1	; 0x01

00001244 <.LM111>:
    1244:	0e c0       	rjmp	.+28     	; 0x1262 <.L75>

00001246 <.L76>:
    1246:	89 81       	ldd	r24, Y+1	; 0x01
    1248:	88 2f       	mov	r24, r24
    124a:	90 e0       	ldi	r25, 0x00	; 0
    124c:	2a 81       	ldd	r18, Y+2	; 0x02
    124e:	3b 81       	ldd	r19, Y+3	; 0x03
    1250:	82 0f       	add	r24, r18
    1252:	93 1f       	adc	r25, r19

00001254 <.LM113>:
    1254:	fc 01       	movw	r30, r24
    1256:	80 81       	ld	r24, Z
    1258:	0e 94 94 08 	call	0x1128	; 0x1128 <LCD_SendData_4BitMode>

0000125c <.LM114>:
    125c:	89 81       	ldd	r24, Y+1	; 0x01
    125e:	8f 5f       	subi	r24, 0xFF	; 255
    1260:	89 83       	std	Y+1, r24	; 0x01

00001262 <.L75>:
    1262:	89 81       	ldd	r24, Y+1	; 0x01
    1264:	88 2f       	mov	r24, r24
    1266:	90 e0       	ldi	r25, 0x00	; 0
    1268:	2a 81       	ldd	r18, Y+2	; 0x02
    126a:	3b 81       	ldd	r19, Y+3	; 0x03
    126c:	82 0f       	add	r24, r18
    126e:	93 1f       	adc	r25, r19

00001270 <.LM116>:
    1270:	fc 01       	movw	r30, r24
    1272:	80 81       	ld	r24, Z

00001274 <.LM117>:
    1274:	88 23       	and	r24, r24
    1276:	39 f7       	brne	.-50     	; 0x1246 <.L76>

00001278 <.LBE71>:
    1278:	00 00       	nop
    127a:	0f 90       	pop	r0
    127c:	0f 90       	pop	r0
    127e:	0f 90       	pop	r0
    1280:	df 91       	pop	r29
    1282:	cf 91       	pop	r28
    1284:	08 95       	ret

00001286 <SPI_Init_Master>:
    1286:	cf 93       	push	r28
    1288:	df 93       	push	r29
    128a:	cd b7       	in	r28, 0x3d	; 61
    128c:	de b7       	in	r29, 0x3e	; 62

0000128e <.LM1>:
    128e:	8d e2       	ldi	r24, 0x2D	; 45
    1290:	90 e0       	ldi	r25, 0x00	; 0
    1292:	fc 01       	movw	r30, r24
    1294:	20 81       	ld	r18, Z
    1296:	8d e2       	ldi	r24, 0x2D	; 45
    1298:	90 e0       	ldi	r25, 0x00	; 0
    129a:	20 62       	ori	r18, 0x20	; 32
    129c:	fc 01       	movw	r30, r24
    129e:	20 83       	st	Z, r18

000012a0 <.LM2>:
    12a0:	8d e2       	ldi	r24, 0x2D	; 45
    12a2:	90 e0       	ldi	r25, 0x00	; 0
    12a4:	fc 01       	movw	r30, r24
    12a6:	20 81       	ld	r18, Z
    12a8:	8d e2       	ldi	r24, 0x2D	; 45
    12aa:	90 e0       	ldi	r25, 0x00	; 0
    12ac:	27 7f       	andi	r18, 0xF7	; 247
    12ae:	fc 01       	movw	r30, r24
    12b0:	20 83       	st	Z, r18

000012b2 <.LM3>:
    12b2:	8d e2       	ldi	r24, 0x2D	; 45
    12b4:	90 e0       	ldi	r25, 0x00	; 0
    12b6:	fc 01       	movw	r30, r24
    12b8:	20 81       	ld	r18, Z
    12ba:	8d e2       	ldi	r24, 0x2D	; 45
    12bc:	90 e0       	ldi	r25, 0x00	; 0
    12be:	2b 7f       	andi	r18, 0xFB	; 251
    12c0:	fc 01       	movw	r30, r24
    12c2:	20 83       	st	Z, r18

000012c4 <.LM4>:
    12c4:	8e e2       	ldi	r24, 0x2E	; 46
    12c6:	90 e0       	ldi	r25, 0x00	; 0
    12c8:	fc 01       	movw	r30, r24
    12ca:	20 81       	ld	r18, Z
    12cc:	8e e2       	ldi	r24, 0x2E	; 46
    12ce:	90 e0       	ldi	r25, 0x00	; 0
    12d0:	2e 7f       	andi	r18, 0xFE	; 254
    12d2:	fc 01       	movw	r30, r24
    12d4:	20 83       	st	Z, r18

000012d6 <.LM5>:
    12d6:	8d e2       	ldi	r24, 0x2D	; 45
    12d8:	90 e0       	ldi	r25, 0x00	; 0
    12da:	fc 01       	movw	r30, r24
    12dc:	20 81       	ld	r18, Z
    12de:	8d e2       	ldi	r24, 0x2D	; 45
    12e0:	90 e0       	ldi	r25, 0x00	; 0
    12e2:	2e 7f       	andi	r18, 0xFE	; 254
    12e4:	fc 01       	movw	r30, r24
    12e6:	20 83       	st	Z, r18

000012e8 <.LM6>:
    12e8:	8d e2       	ldi	r24, 0x2D	; 45
    12ea:	90 e0       	ldi	r25, 0x00	; 0
    12ec:	fc 01       	movw	r30, r24
    12ee:	20 81       	ld	r18, Z
    12f0:	8d e2       	ldi	r24, 0x2D	; 45
    12f2:	90 e0       	ldi	r25, 0x00	; 0
    12f4:	22 60       	ori	r18, 0x02	; 2
    12f6:	fc 01       	movw	r30, r24
    12f8:	20 83       	st	Z, r18

000012fa <.LM7>:
    12fa:	8d e2       	ldi	r24, 0x2D	; 45
    12fc:	90 e0       	ldi	r25, 0x00	; 0
    12fe:	fc 01       	movw	r30, r24
    1300:	20 81       	ld	r18, Z
    1302:	8d e2       	ldi	r24, 0x2D	; 45
    1304:	90 e0       	ldi	r25, 0x00	; 0
    1306:	20 61       	ori	r18, 0x10	; 16
    1308:	fc 01       	movw	r30, r24
    130a:	20 83       	st	Z, r18

0000130c <.LM8>:
    130c:	8d e2       	ldi	r24, 0x2D	; 45
    130e:	90 e0       	ldi	r25, 0x00	; 0
    1310:	fc 01       	movw	r30, r24
    1312:	20 81       	ld	r18, Z
    1314:	8d e2       	ldi	r24, 0x2D	; 45
    1316:	90 e0       	ldi	r25, 0x00	; 0
    1318:	20 64       	ori	r18, 0x40	; 64
    131a:	fc 01       	movw	r30, r24
    131c:	20 83       	st	Z, r18

0000131e <.LM9>:
    131e:	00 00       	nop
    1320:	df 91       	pop	r29
    1322:	cf 91       	pop	r28
    1324:	08 95       	ret

00001326 <SPI_Init_Slave>:
    1326:	cf 93       	push	r28
    1328:	df 93       	push	r29
    132a:	cd b7       	in	r28, 0x3d	; 61
    132c:	de b7       	in	r29, 0x3e	; 62

0000132e <.LM11>:
    132e:	8d e2       	ldi	r24, 0x2D	; 45
    1330:	90 e0       	ldi	r25, 0x00	; 0
    1332:	fc 01       	movw	r30, r24
    1334:	20 81       	ld	r18, Z
    1336:	8d e2       	ldi	r24, 0x2D	; 45
    1338:	90 e0       	ldi	r25, 0x00	; 0
    133a:	20 62       	ori	r18, 0x20	; 32
    133c:	fc 01       	movw	r30, r24
    133e:	20 83       	st	Z, r18

00001340 <.LM12>:
    1340:	8d e2       	ldi	r24, 0x2D	; 45
    1342:	90 e0       	ldi	r25, 0x00	; 0
    1344:	fc 01       	movw	r30, r24
    1346:	20 81       	ld	r18, Z
    1348:	8d e2       	ldi	r24, 0x2D	; 45
    134a:	90 e0       	ldi	r25, 0x00	; 0
    134c:	27 7f       	andi	r18, 0xF7	; 247
    134e:	fc 01       	movw	r30, r24
    1350:	20 83       	st	Z, r18

00001352 <.LM13>:
    1352:	8d e2       	ldi	r24, 0x2D	; 45
    1354:	90 e0       	ldi	r25, 0x00	; 0
    1356:	fc 01       	movw	r30, r24
    1358:	20 81       	ld	r18, Z
    135a:	8d e2       	ldi	r24, 0x2D	; 45
    135c:	90 e0       	ldi	r25, 0x00	; 0
    135e:	2b 7f       	andi	r18, 0xFB	; 251
    1360:	fc 01       	movw	r30, r24
    1362:	20 83       	st	Z, r18

00001364 <.LM14>:
    1364:	8d e2       	ldi	r24, 0x2D	; 45
    1366:	90 e0       	ldi	r25, 0x00	; 0
    1368:	fc 01       	movw	r30, r24
    136a:	20 81       	ld	r18, Z
    136c:	8d e2       	ldi	r24, 0x2D	; 45
    136e:	90 e0       	ldi	r25, 0x00	; 0
    1370:	2f 7e       	andi	r18, 0xEF	; 239
    1372:	fc 01       	movw	r30, r24
    1374:	20 83       	st	Z, r18

00001376 <.LM15>:
    1376:	8d e2       	ldi	r24, 0x2D	; 45
    1378:	90 e0       	ldi	r25, 0x00	; 0
    137a:	fc 01       	movw	r30, r24
    137c:	20 81       	ld	r18, Z
    137e:	8d e2       	ldi	r24, 0x2D	; 45
    1380:	90 e0       	ldi	r25, 0x00	; 0
    1382:	20 64       	ori	r18, 0x40	; 64
    1384:	fc 01       	movw	r30, r24
    1386:	20 83       	st	Z, r18

00001388 <.LM16>:
    1388:	00 00       	nop
    138a:	df 91       	pop	r29
    138c:	cf 91       	pop	r28
    138e:	08 95       	ret

00001390 <SPI_SendData>:
    1390:	cf 93       	push	r28
    1392:	df 93       	push	r29
    1394:	0f 92       	push	r0
    1396:	cd b7       	in	r28, 0x3d	; 61
    1398:	de b7       	in	r29, 0x3e	; 62
    139a:	89 83       	std	Y+1, r24	; 0x01

0000139c <.LM18>:
    139c:	8f e2       	ldi	r24, 0x2F	; 47
    139e:	90 e0       	ldi	r25, 0x00	; 0

000013a0 <.LM19>:
    13a0:	29 81       	ldd	r18, Y+1	; 0x01
    13a2:	fc 01       	movw	r30, r24
    13a4:	20 83       	st	Z, r18

000013a6 <.LM20>:
	...

000013a8 <.L4>:
    13a8:	8e e2       	ldi	r24, 0x2E	; 46
    13aa:	90 e0       	ldi	r25, 0x00	; 0
    13ac:	fc 01       	movw	r30, r24
    13ae:	80 81       	ld	r24, Z
    13b0:	88 1f       	adc	r24, r24
    13b2:	88 27       	eor	r24, r24
    13b4:	88 1f       	adc	r24, r24
    13b6:	88 2f       	mov	r24, r24
    13b8:	90 e0       	ldi	r25, 0x00	; 0
    13ba:	81 70       	andi	r24, 0x01	; 1
    13bc:	99 27       	eor	r25, r25

000013be <.LM22>:
    13be:	89 2b       	or	r24, r25
    13c0:	99 f3       	breq	.-26     	; 0x13a8 <.L4>

000013c2 <.LM23>:
    13c2:	8f e2       	ldi	r24, 0x2F	; 47
    13c4:	90 e0       	ldi	r25, 0x00	; 0
    13c6:	fc 01       	movw	r30, r24
    13c8:	80 81       	ld	r24, Z

000013ca <.LM24>:
    13ca:	0f 90       	pop	r0
    13cc:	df 91       	pop	r29
    13ce:	cf 91       	pop	r28
    13d0:	08 95       	ret

000013d2 <USART_init>:
    13d2:	cf 93       	push	r28
    13d4:	df 93       	push	r29
    13d6:	0f 92       	push	r0
    13d8:	cd b7       	in	r28, 0x3d	; 61
    13da:	de b7       	in	r29, 0x3e	; 62

000013dc <.LM1>:
    13dc:	19 82       	std	Y+1, r1	; 0x01

000013de <.LM2>:
    13de:	89 81       	ldd	r24, Y+1	; 0x01
    13e0:	8f 7b       	andi	r24, 0xBF	; 191
    13e2:	89 83       	std	Y+1, r24	; 0x01

000013e4 <.LM3>:
    13e4:	89 81       	ldd	r24, Y+1	; 0x01
    13e6:	8f 7d       	andi	r24, 0xDF	; 223
    13e8:	89 83       	std	Y+1, r24	; 0x01

000013ea <.LM4>:
    13ea:	89 81       	ldd	r24, Y+1	; 0x01
    13ec:	8f 7e       	andi	r24, 0xEF	; 239
    13ee:	89 83       	std	Y+1, r24	; 0x01

000013f0 <.LM5>:
    13f0:	89 81       	ldd	r24, Y+1	; 0x01
    13f2:	87 7f       	andi	r24, 0xF7	; 247
    13f4:	89 83       	std	Y+1, r24	; 0x01

000013f6 <.LM6>:
    13f6:	89 81       	ldd	r24, Y+1	; 0x01
    13f8:	82 60       	ori	r24, 0x02	; 2
    13fa:	89 83       	std	Y+1, r24	; 0x01

000013fc <.LM7>:
    13fc:	89 81       	ldd	r24, Y+1	; 0x01
    13fe:	84 60       	ori	r24, 0x04	; 4
    1400:	89 83       	std	Y+1, r24	; 0x01

00001402 <.LM8>:
    1402:	89 81       	ldd	r24, Y+1	; 0x01
    1404:	80 68       	ori	r24, 0x80	; 128
    1406:	89 83       	std	Y+1, r24	; 0x01

00001408 <.LM9>:
    1408:	80 e4       	ldi	r24, 0x40	; 64
    140a:	90 e0       	ldi	r25, 0x00	; 0

0000140c <.LM10>:
    140c:	29 81       	ldd	r18, Y+1	; 0x01
    140e:	fc 01       	movw	r30, r24
    1410:	20 83       	st	Z, r18

00001412 <.LM11>:
    1412:	89 e2       	ldi	r24, 0x29	; 41
    1414:	90 e0       	ldi	r25, 0x00	; 0

00001416 <.LM12>:
    1416:	23 e3       	ldi	r18, 0x33	; 51
    1418:	fc 01       	movw	r30, r24
    141a:	20 83       	st	Z, r18

0000141c <.LM13>:
    141c:	8a e2       	ldi	r24, 0x2A	; 42
    141e:	90 e0       	ldi	r25, 0x00	; 0
    1420:	fc 01       	movw	r30, r24
    1422:	20 81       	ld	r18, Z
    1424:	8a e2       	ldi	r24, 0x2A	; 42
    1426:	90 e0       	ldi	r25, 0x00	; 0
    1428:	28 60       	ori	r18, 0x08	; 8
    142a:	fc 01       	movw	r30, r24
    142c:	20 83       	st	Z, r18

0000142e <.LM14>:
    142e:	8a e2       	ldi	r24, 0x2A	; 42
    1430:	90 e0       	ldi	r25, 0x00	; 0
    1432:	fc 01       	movw	r30, r24
    1434:	20 81       	ld	r18, Z
    1436:	8a e2       	ldi	r24, 0x2A	; 42
    1438:	90 e0       	ldi	r25, 0x00	; 0
    143a:	20 61       	ori	r18, 0x10	; 16
    143c:	fc 01       	movw	r30, r24
    143e:	20 83       	st	Z, r18

00001440 <.LM15>:
    1440:	8a e2       	ldi	r24, 0x2A	; 42
    1442:	90 e0       	ldi	r25, 0x00	; 0
    1444:	fc 01       	movw	r30, r24
    1446:	20 81       	ld	r18, Z
    1448:	8a e2       	ldi	r24, 0x2A	; 42
    144a:	90 e0       	ldi	r25, 0x00	; 0
    144c:	2b 7f       	andi	r18, 0xFB	; 251
    144e:	fc 01       	movw	r30, r24
    1450:	20 83       	st	Z, r18

00001452 <.LM16>:
    1452:	00 00       	nop
    1454:	0f 90       	pop	r0
    1456:	df 91       	pop	r29
    1458:	cf 91       	pop	r28
    145a:	08 95       	ret

0000145c <USART_Send>:
    145c:	cf 93       	push	r28
    145e:	df 93       	push	r29
    1460:	0f 92       	push	r0
    1462:	cd b7       	in	r28, 0x3d	; 61
    1464:	de b7       	in	r29, 0x3e	; 62
    1466:	89 83       	std	Y+1, r24	; 0x01

00001468 <.LM18>:
	...

0000146a <.L3>:
    146a:	8b e2       	ldi	r24, 0x2B	; 43
    146c:	90 e0       	ldi	r25, 0x00	; 0
    146e:	fc 01       	movw	r30, r24
    1470:	80 81       	ld	r24, Z
    1472:	82 95       	swap	r24
    1474:	86 95       	lsr	r24
    1476:	87 70       	andi	r24, 0x07	; 7
    1478:	88 2f       	mov	r24, r24
    147a:	90 e0       	ldi	r25, 0x00	; 0
    147c:	81 70       	andi	r24, 0x01	; 1
    147e:	99 27       	eor	r25, r25

00001480 <.LM20>:
    1480:	89 2b       	or	r24, r25
    1482:	99 f3       	breq	.-26     	; 0x146a <.L3>

00001484 <.LM21>:
    1484:	8c e2       	ldi	r24, 0x2C	; 44
    1486:	90 e0       	ldi	r25, 0x00	; 0

00001488 <.LM22>:
    1488:	29 81       	ldd	r18, Y+1	; 0x01
    148a:	fc 01       	movw	r30, r24
    148c:	20 83       	st	Z, r18

0000148e <.LM23>:
    148e:	00 00       	nop
    1490:	0f 90       	pop	r0
    1492:	df 91       	pop	r29
    1494:	cf 91       	pop	r28
    1496:	08 95       	ret

00001498 <USART_Receive>:
    1498:	cf 93       	push	r28
    149a:	df 93       	push	r29
    149c:	cd b7       	in	r28, 0x3d	; 61
    149e:	de b7       	in	r29, 0x3e	; 62

000014a0 <.LM25>:
	...

000014a2 <.L5>:
    14a2:	8b e2       	ldi	r24, 0x2B	; 43
    14a4:	90 e0       	ldi	r25, 0x00	; 0
    14a6:	fc 01       	movw	r30, r24
    14a8:	80 81       	ld	r24, Z
    14aa:	88 1f       	adc	r24, r24
    14ac:	88 27       	eor	r24, r24
    14ae:	88 1f       	adc	r24, r24
    14b0:	88 2f       	mov	r24, r24
    14b2:	90 e0       	ldi	r25, 0x00	; 0
    14b4:	81 70       	andi	r24, 0x01	; 1
    14b6:	99 27       	eor	r25, r25

000014b8 <.LM27>:
    14b8:	89 2b       	or	r24, r25
    14ba:	99 f3       	breq	.-26     	; 0x14a2 <.L5>

000014bc <.LM28>:
    14bc:	8c e2       	ldi	r24, 0x2C	; 44
    14be:	90 e0       	ldi	r25, 0x00	; 0
    14c0:	fc 01       	movw	r30, r24
    14c2:	80 81       	ld	r24, Z

000014c4 <.LM29>:
    14c4:	df 91       	pop	r29
    14c6:	cf 91       	pop	r28
    14c8:	08 95       	ret

000014ca <main>:
    14ca:	0f 93       	push	r16
    14cc:	1f 93       	push	r17
    14ce:	cf 93       	push	r28
    14d0:	df 93       	push	r29
    14d2:	cd b7       	in	r28, 0x3d	; 61
    14d4:	de b7       	in	r29, 0x3e	; 62
    14d6:	cb 54       	subi	r28, 0x4B	; 75
    14d8:	d1 09       	sbc	r29, r1
    14da:	0f b6       	in	r0, 0x3f	; 63
    14dc:	f8 94       	cli
    14de:	de bf       	out	0x3e, r29	; 62
    14e0:	0f be       	out	0x3f, r0	; 63
    14e2:	cd bf       	out	0x3d, r28	; 61

000014e4 <.LM1>:
    14e4:	19 82       	std	Y+1, r1	; 0x01

000014e6 <.LM2>:
    14e6:	41 e0       	ldi	r20, 0x01	; 1
    14e8:	60 e0       	ldi	r22, 0x00	; 0
    14ea:	82 e0       	ldi	r24, 0x02	; 2
    14ec:	0e 94 f8 00 	call	0x1f0	; 0x1f0 <SET_Direction>

000014f0 <.LM3>:
    14f0:	41 e0       	ldi	r20, 0x01	; 1
    14f2:	61 e0       	ldi	r22, 0x01	; 1
    14f4:	82 e0       	ldi	r24, 0x02	; 2
    14f6:	0e 94 f8 00 	call	0x1f0	; 0x1f0 <SET_Direction>

000014fa <.LM4>:
    14fa:	41 e0       	ldi	r20, 0x01	; 1
    14fc:	62 e0       	ldi	r22, 0x02	; 2
    14fe:	82 e0       	ldi	r24, 0x02	; 2
    1500:	0e 94 f8 00 	call	0x1f0	; 0x1f0 <SET_Direction>

00001504 <.LM5>:
    1504:	61 e0       	ldi	r22, 0x01	; 1
    1506:	82 e0       	ldi	r24, 0x02	; 2
    1508:	0e 94 4d 04 	call	0x89a	; 0x89a <SET_Direction_4MSB>

0000150c <.LM6>:
    150c:	40 e0       	ldi	r20, 0x00	; 0
    150e:	60 e0       	ldi	r22, 0x00	; 0
    1510:	80 e0       	ldi	r24, 0x00	; 0
    1512:	0e 94 f8 00 	call	0x1f0	; 0x1f0 <SET_Direction>

00001516 <.LM7>:
    1516:	40 e0       	ldi	r20, 0x00	; 0
    1518:	62 e0       	ldi	r22, 0x02	; 2
    151a:	83 e0       	ldi	r24, 0x03	; 3
    151c:	0e 94 f8 00 	call	0x1f0	; 0x1f0 <SET_Direction>

00001520 <.LM8>:
    1520:	41 e0       	ldi	r20, 0x01	; 1
    1522:	62 e0       	ldi	r22, 0x02	; 2
    1524:	83 e0       	ldi	r24, 0x03	; 3
    1526:	0e 94 f3 01 	call	0x3e6	; 0x3e6 <SET_Value>

0000152a <.LM9>:
    152a:	40 e0       	ldi	r20, 0x00	; 0
    152c:	63 e0       	ldi	r22, 0x03	; 3
    152e:	83 e0       	ldi	r24, 0x03	; 3
    1530:	0e 94 f8 00 	call	0x1f0	; 0x1f0 <SET_Direction>

00001534 <.LM10>:
    1534:	41 e0       	ldi	r20, 0x01	; 1
    1536:	63 e0       	ldi	r22, 0x03	; 3
    1538:	83 e0       	ldi	r24, 0x03	; 3
    153a:	0e 94 f3 01 	call	0x3e6	; 0x3e6 <SET_Value>

0000153e <.LM11>:
    153e:	41 e0       	ldi	r20, 0x01	; 1
    1540:	62 e0       	ldi	r22, 0x02	; 2
    1542:	81 e0       	ldi	r24, 0x01	; 1
    1544:	0e 94 f8 00 	call	0x1f0	; 0x1f0 <SET_Direction>

00001548 <.LM12>:
    1548:	40 e0       	ldi	r20, 0x00	; 0
    154a:	60 e0       	ldi	r22, 0x00	; 0
    154c:	83 e0       	ldi	r24, 0x03	; 3
    154e:	0e 94 f8 00 	call	0x1f0	; 0x1f0 <SET_Direction>

00001552 <.LM13>:
    1552:	41 e0       	ldi	r20, 0x01	; 1
    1554:	61 e0       	ldi	r22, 0x01	; 1
    1556:	83 e0       	ldi	r24, 0x03	; 3
    1558:	0e 94 f8 00 	call	0x1f0	; 0x1f0 <SET_Direction>

0000155c <.LM14>:
    155c:	41 e0       	ldi	r20, 0x01	; 1
    155e:	65 e0       	ldi	r22, 0x05	; 5
    1560:	81 e0       	ldi	r24, 0x01	; 1
    1562:	0e 94 f8 00 	call	0x1f0	; 0x1f0 <SET_Direction>

00001566 <.LM15>:
    1566:	40 e0       	ldi	r20, 0x00	; 0
    1568:	66 e0       	ldi	r22, 0x06	; 6
    156a:	81 e0       	ldi	r24, 0x01	; 1
    156c:	0e 94 f8 00 	call	0x1f0	; 0x1f0 <SET_Direction>

00001570 <.LM16>:
    1570:	41 e0       	ldi	r20, 0x01	; 1
    1572:	64 e0       	ldi	r22, 0x04	; 4
    1574:	81 e0       	ldi	r24, 0x01	; 1
    1576:	0e 94 f8 00 	call	0x1f0	; 0x1f0 <SET_Direction>

0000157a <.LM17>:
    157a:	41 e0       	ldi	r20, 0x01	; 1
    157c:	67 e0       	ldi	r22, 0x07	; 7
    157e:	81 e0       	ldi	r24, 0x01	; 1
    1580:	0e 94 f8 00 	call	0x1f0	; 0x1f0 <SET_Direction>

00001584 <.LM18>:
    1584:	40 e0       	ldi	r20, 0x00	; 0
    1586:	64 e0       	ldi	r22, 0x04	; 4
    1588:	81 e0       	ldi	r24, 0x01	; 1
    158a:	0e 94 f3 01 	call	0x3e6	; 0x3e6 <SET_Value>

0000158e <.LM19>:
    158e:	0e 94 cf 05 	call	0xb9e	; 0xb9e <LCD_Init>

00001592 <.LM20>:
    1592:	0e 94 49 00 	call	0x92	; 0x92 <ADC_Init>

00001596 <.LM21>:
    1596:	0e 94 e9 09 	call	0x13d2	; 0x13d2 <USART_init>

0000159a <.LM22>:
    159a:	0e 94 43 09 	call	0x1286	; 0x1286 <SPI_Init_Master>

0000159e <.LM23>:
    159e:	80 e0       	ldi	r24, 0x00	; 0
    15a0:	0e 94 73 05 	call	0xae6	; 0xae6 <EXTI_Enable>

000015a4 <.LM24>:
    15a4:	0e 94 be 05 	call	0xb7c	; 0xb7c <Interrupt_Enable>

000015a8 <.LM25>:
    15a8:	84 e6       	ldi	r24, 0x64	; 100
    15aa:	90 e0       	ldi	r25, 0x00	; 0
    15ac:	0e 94 19 09 	call	0x1232	; 0x1232 <LCD_String>
    15b0:	80 e0       	ldi	r24, 0x00	; 0
    15b2:	90 e8       	ldi	r25, 0x80	; 128
    15b4:	ab eb       	ldi	r26, 0xBB	; 187
    15b6:	b4 e4       	ldi	r27, 0x44	; 68
    15b8:	8a 83       	std	Y+2, r24	; 0x02
    15ba:	9b 83       	std	Y+3, r25	; 0x03
    15bc:	ac 83       	std	Y+4, r26	; 0x04
    15be:	bd 83       	std	Y+5, r27	; 0x05

000015c0 <.LM26>:
    15c0:	20 e0       	ldi	r18, 0x00	; 0
    15c2:	30 e0       	ldi	r19, 0x00	; 0
    15c4:	4a ef       	ldi	r20, 0xFA	; 250
    15c6:	54 e4       	ldi	r21, 0x44	; 68
    15c8:	6a 81       	ldd	r22, Y+2	; 0x02
    15ca:	7b 81       	ldd	r23, Y+3	; 0x03
    15cc:	8c 81       	ldd	r24, Y+4	; 0x04
    15ce:	9d 81       	ldd	r25, Y+5	; 0x05
    15d0:	0e 94 eb 11 	call	0x23d6	; 0x23d6 <__mulsf3>
    15d4:	dc 01       	movw	r26, r24
    15d6:	cb 01       	movw	r24, r22
    15d8:	8e 83       	std	Y+6, r24	; 0x06
    15da:	9f 83       	std	Y+7, r25	; 0x07
    15dc:	a8 87       	std	Y+8, r26	; 0x08
    15de:	b9 87       	std	Y+9, r27	; 0x09

000015e0 <.LM27>:
    15e0:	20 e0       	ldi	r18, 0x00	; 0
    15e2:	30 e0       	ldi	r19, 0x00	; 0
    15e4:	40 e8       	ldi	r20, 0x80	; 128
    15e6:	5f e3       	ldi	r21, 0x3F	; 63
    15e8:	6e 81       	ldd	r22, Y+6	; 0x06
    15ea:	7f 81       	ldd	r23, Y+7	; 0x07
    15ec:	88 85       	ldd	r24, Y+8	; 0x08
    15ee:	99 85       	ldd	r25, Y+9	; 0x09
    15f0:	0e 94 65 11 	call	0x22ca	; 0x22ca <__cmpsf2>
    15f4:	88 23       	and	r24, r24
    15f6:	2c f4       	brge	.+10     	; 0x1602 <.L61>

000015f8 <.LM28>:
    15f8:	81 e0       	ldi	r24, 0x01	; 1
    15fa:	90 e0       	ldi	r25, 0x00	; 0
    15fc:	9b 87       	std	Y+11, r25	; 0x0b
    15fe:	8a 87       	std	Y+10, r24	; 0x0a
    1600:	3f c0       	rjmp	.+126    	; 0x1680 <.L4>

00001602 <.L61>:
    1602:	20 e0       	ldi	r18, 0x00	; 0
    1604:	3f ef       	ldi	r19, 0xFF	; 255
    1606:	4f e7       	ldi	r20, 0x7F	; 127
    1608:	57 e4       	ldi	r21, 0x47	; 71
    160a:	6e 81       	ldd	r22, Y+6	; 0x06
    160c:	7f 81       	ldd	r23, Y+7	; 0x07
    160e:	88 85       	ldd	r24, Y+8	; 0x08
    1610:	99 85       	ldd	r25, Y+9	; 0x09
    1612:	0e 94 e6 11 	call	0x23cc	; 0x23cc <__gesf2>
    1616:	18 16       	cp	r1, r24
    1618:	4c f5       	brge	.+82     	; 0x166c <.L62>

0000161a <.LM30>:
    161a:	20 e0       	ldi	r18, 0x00	; 0
    161c:	30 e0       	ldi	r19, 0x00	; 0
    161e:	40 e2       	ldi	r20, 0x20	; 32
    1620:	51 e4       	ldi	r21, 0x41	; 65
    1622:	6a 81       	ldd	r22, Y+2	; 0x02
    1624:	7b 81       	ldd	r23, Y+3	; 0x03
    1626:	8c 81       	ldd	r24, Y+4	; 0x04
    1628:	9d 81       	ldd	r25, Y+5	; 0x05
    162a:	0e 94 eb 11 	call	0x23d6	; 0x23d6 <__mulsf3>
    162e:	dc 01       	movw	r26, r24
    1630:	cb 01       	movw	r24, r22

00001632 <.LM31>:
    1632:	bc 01       	movw	r22, r24
    1634:	cd 01       	movw	r24, r26
    1636:	0e 94 6a 11 	call	0x22d4	; 0x22d4 <__fixunssfsi>
    163a:	dc 01       	movw	r26, r24
    163c:	cb 01       	movw	r24, r22
    163e:	9b 87       	std	Y+11, r25	; 0x0b
    1640:	8a 87       	std	Y+10, r24	; 0x0a
    1642:	0f c0       	rjmp	.+30     	; 0x1662 <.L7>

00001644 <.L8>:
    1644:	88 ec       	ldi	r24, 0xC8	; 200
    1646:	90 e0       	ldi	r25, 0x00	; 0
    1648:	9d 87       	std	Y+13, r25	; 0x0d
    164a:	8c 87       	std	Y+12, r24	; 0x0c

0000164c <.LM32>:
    164c:	8c 85       	ldd	r24, Y+12	; 0x0c
    164e:	9d 85       	ldd	r25, Y+13	; 0x0d

00001650 <.L1^B1>:
    1650:	01 97       	sbiw	r24, 0x01	; 1
    1652:	f1 f7       	brne	.-4      	; 0x1650 <.L1^B1>
    1654:	9d 87       	std	Y+13, r25	; 0x0d
    1656:	8c 87       	std	Y+12, r24	; 0x0c

00001658 <.LM33>:
    1658:	8a 85       	ldd	r24, Y+10	; 0x0a
    165a:	9b 85       	ldd	r25, Y+11	; 0x0b
    165c:	01 97       	sbiw	r24, 0x01	; 1
    165e:	9b 87       	std	Y+11, r25	; 0x0b
    1660:	8a 87       	std	Y+10, r24	; 0x0a

00001662 <.L7>:
    1662:	8a 85       	ldd	r24, Y+10	; 0x0a
    1664:	9b 85       	ldd	r25, Y+11	; 0x0b
    1666:	89 2b       	or	r24, r25
    1668:	69 f7       	brne	.-38     	; 0x1644 <.L8>

0000166a <.LM35>:
    166a:	14 c0       	rjmp	.+40     	; 0x1694 <.L50>

0000166c <.L62>:
    166c:	6e 81       	ldd	r22, Y+6	; 0x06
    166e:	7f 81       	ldd	r23, Y+7	; 0x07
    1670:	88 85       	ldd	r24, Y+8	; 0x08
    1672:	99 85       	ldd	r25, Y+9	; 0x09
    1674:	0e 94 6a 11 	call	0x22d4	; 0x22d4 <__fixunssfsi>
    1678:	dc 01       	movw	r26, r24
    167a:	cb 01       	movw	r24, r22
    167c:	9b 87       	std	Y+11, r25	; 0x0b
    167e:	8a 87       	std	Y+10, r24	; 0x0a

00001680 <.L4>:
    1680:	8a 85       	ldd	r24, Y+10	; 0x0a
    1682:	9b 85       	ldd	r25, Y+11	; 0x0b
    1684:	9f 87       	std	Y+15, r25	; 0x0f
    1686:	8e 87       	std	Y+14, r24	; 0x0e

00001688 <.LM37>:
    1688:	8e 85       	ldd	r24, Y+14	; 0x0e
    168a:	9f 85       	ldd	r25, Y+15	; 0x0f

0000168c <.L1^B2>:
    168c:	01 97       	sbiw	r24, 0x01	; 1
    168e:	f1 f7       	brne	.-4      	; 0x168c <.L1^B2>
    1690:	9f 87       	std	Y+15, r25	; 0x0f
    1692:	8e 87       	std	Y+14, r24	; 0x0e

00001694 <.L50>:
    1694:	80 91 ad 00 	lds	r24, 0x00AD	; 0x8000ad <flag1>

00001698 <.LM39>:
    1698:	82 30       	cpi	r24, 0x02	; 2
    169a:	61 f4       	brne	.+24     	; 0x16b4 <.L10>

0000169c <.LM40>:
    169c:	80 e1       	ldi	r24, 0x10	; 16
    169e:	0e 94 70 06 	call	0xce0	; 0xce0 <LCD_SendCommands>

000016a2 <.LM41>:
    16a2:	81 e0       	ldi	r24, 0x01	; 1
    16a4:	0e 94 70 06 	call	0xce0	; 0xce0 <LCD_SendCommands>

000016a8 <.LM42>:
    16a8:	84 e6       	ldi	r24, 0x64	; 100
    16aa:	90 e0       	ldi	r25, 0x00	; 0
    16ac:	0e 94 19 09 	call	0x1232	; 0x1232 <LCD_String>

000016b0 <.LM43>:
    16b0:	10 92 ad 00 	sts	0x00AD, r1	; 0x8000ad <flag1>

000016b4 <.L10>:
    16b4:	0e 94 4c 0a 	call	0x1498	; 0x1498 <USART_Receive>

000016b8 <.LM45>:
    16b8:	8f 34       	cpi	r24, 0x4F	; 79
    16ba:	09 f0       	breq	.+2      	; 0x16be <.LM46>

000016bc <L0^A>:
    16bc:	ed c2       	rjmp	.+1498   	; 0x1c98 <.L20>

000016be <.LM46>:
    16be:	80 91 ac 00 	lds	r24, 0x00AC	; 0x8000ac <flag>

000016c2 <.LM47>:
    16c2:	88 23       	and	r24, r24
    16c4:	09 f0       	breq	.+2      	; 0x16c8 <.LM48>

000016c6 <L0^A>:
    16c6:	e8 c2       	rjmp	.+1488   	; 0x1c98 <.L20>

000016c8 <.LM48>:
    16c8:	80 e1       	ldi	r24, 0x10	; 16
    16ca:	0e 94 70 06 	call	0xce0	; 0xce0 <LCD_SendCommands>

000016ce <.LM49>:
    16ce:	81 e0       	ldi	r24, 0x01	; 1
    16d0:	0e 94 70 06 	call	0xce0	; 0xce0 <LCD_SendCommands>

000016d4 <.LM50>:
    16d4:	85 e7       	ldi	r24, 0x75	; 117
    16d6:	90 e0       	ldi	r25, 0x00	; 0
    16d8:	0e 94 19 09 	call	0x1232	; 0x1232 <LCD_String>
    16dc:	80 e0       	ldi	r24, 0x00	; 0
    16de:	90 e0       	ldi	r25, 0x00	; 0
    16e0:	aa e7       	ldi	r26, 0x7A	; 122
    16e2:	b3 e4       	ldi	r27, 0x43	; 67
    16e4:	88 8b       	std	Y+16, r24	; 0x10
    16e6:	99 8b       	std	Y+17, r25	; 0x11
    16e8:	aa 8b       	std	Y+18, r26	; 0x12
    16ea:	bb 8b       	std	Y+19, r27	; 0x13

000016ec <.LM51>:
    16ec:	20 e0       	ldi	r18, 0x00	; 0
    16ee:	30 e0       	ldi	r19, 0x00	; 0
    16f0:	4a ef       	ldi	r20, 0xFA	; 250
    16f2:	54 e4       	ldi	r21, 0x44	; 68
    16f4:	68 89       	ldd	r22, Y+16	; 0x10
    16f6:	79 89       	ldd	r23, Y+17	; 0x11
    16f8:	8a 89       	ldd	r24, Y+18	; 0x12
    16fa:	9b 89       	ldd	r25, Y+19	; 0x13
    16fc:	0e 94 eb 11 	call	0x23d6	; 0x23d6 <__mulsf3>
    1700:	dc 01       	movw	r26, r24
    1702:	cb 01       	movw	r24, r22
    1704:	8c 8b       	std	Y+20, r24	; 0x14
    1706:	9d 8b       	std	Y+21, r25	; 0x15
    1708:	ae 8b       	std	Y+22, r26	; 0x16
    170a:	bf 8b       	std	Y+23, r27	; 0x17

0000170c <.LM52>:
    170c:	20 e0       	ldi	r18, 0x00	; 0
    170e:	30 e0       	ldi	r19, 0x00	; 0
    1710:	40 e8       	ldi	r20, 0x80	; 128
    1712:	5f e3       	ldi	r21, 0x3F	; 63
    1714:	6c 89       	ldd	r22, Y+20	; 0x14
    1716:	7d 89       	ldd	r23, Y+21	; 0x15
    1718:	8e 89       	ldd	r24, Y+22	; 0x16
    171a:	9f 89       	ldd	r25, Y+23	; 0x17
    171c:	0e 94 65 11 	call	0x22ca	; 0x22ca <__cmpsf2>
    1720:	88 23       	and	r24, r24
    1722:	2c f4       	brge	.+10     	; 0x172e <.L63>

00001724 <.LM53>:
    1724:	81 e0       	ldi	r24, 0x01	; 1
    1726:	90 e0       	ldi	r25, 0x00	; 0
    1728:	99 8f       	std	Y+25, r25	; 0x19
    172a:	88 8f       	std	Y+24, r24	; 0x18
    172c:	3f c0       	rjmp	.+126    	; 0x17ac <.L14>

0000172e <.L63>:
    172e:	20 e0       	ldi	r18, 0x00	; 0
    1730:	3f ef       	ldi	r19, 0xFF	; 255
    1732:	4f e7       	ldi	r20, 0x7F	; 127
    1734:	57 e4       	ldi	r21, 0x47	; 71
    1736:	6c 89       	ldd	r22, Y+20	; 0x14
    1738:	7d 89       	ldd	r23, Y+21	; 0x15
    173a:	8e 89       	ldd	r24, Y+22	; 0x16
    173c:	9f 89       	ldd	r25, Y+23	; 0x17
    173e:	0e 94 e6 11 	call	0x23cc	; 0x23cc <__gesf2>
    1742:	18 16       	cp	r1, r24
    1744:	4c f5       	brge	.+82     	; 0x1798 <.L64>

00001746 <.LM55>:
    1746:	20 e0       	ldi	r18, 0x00	; 0
    1748:	30 e0       	ldi	r19, 0x00	; 0
    174a:	40 e2       	ldi	r20, 0x20	; 32
    174c:	51 e4       	ldi	r21, 0x41	; 65
    174e:	68 89       	ldd	r22, Y+16	; 0x10
    1750:	79 89       	ldd	r23, Y+17	; 0x11
    1752:	8a 89       	ldd	r24, Y+18	; 0x12
    1754:	9b 89       	ldd	r25, Y+19	; 0x13
    1756:	0e 94 eb 11 	call	0x23d6	; 0x23d6 <__mulsf3>
    175a:	dc 01       	movw	r26, r24
    175c:	cb 01       	movw	r24, r22

0000175e <.LM56>:
    175e:	bc 01       	movw	r22, r24
    1760:	cd 01       	movw	r24, r26
    1762:	0e 94 6a 11 	call	0x22d4	; 0x22d4 <__fixunssfsi>
    1766:	dc 01       	movw	r26, r24
    1768:	cb 01       	movw	r24, r22
    176a:	99 8f       	std	Y+25, r25	; 0x19
    176c:	88 8f       	std	Y+24, r24	; 0x18
    176e:	0f c0       	rjmp	.+30     	; 0x178e <.L17>

00001770 <.L18>:
    1770:	88 ec       	ldi	r24, 0xC8	; 200
    1772:	90 e0       	ldi	r25, 0x00	; 0
    1774:	9b 8f       	std	Y+27, r25	; 0x1b
    1776:	8a 8f       	std	Y+26, r24	; 0x1a

00001778 <.LM57>:
    1778:	8a 8d       	ldd	r24, Y+26	; 0x1a
    177a:	9b 8d       	ldd	r25, Y+27	; 0x1b

0000177c <.L1^B3>:
    177c:	01 97       	sbiw	r24, 0x01	; 1
    177e:	f1 f7       	brne	.-4      	; 0x177c <.L1^B3>
    1780:	9b 8f       	std	Y+27, r25	; 0x1b
    1782:	8a 8f       	std	Y+26, r24	; 0x1a

00001784 <.LM58>:
    1784:	88 8d       	ldd	r24, Y+24	; 0x18
    1786:	99 8d       	ldd	r25, Y+25	; 0x19
    1788:	01 97       	sbiw	r24, 0x01	; 1
    178a:	99 8f       	std	Y+25, r25	; 0x19
    178c:	88 8f       	std	Y+24, r24	; 0x18

0000178e <.L17>:
    178e:	88 8d       	ldd	r24, Y+24	; 0x18
    1790:	99 8d       	ldd	r25, Y+25	; 0x19
    1792:	89 2b       	or	r24, r25
    1794:	69 f7       	brne	.-38     	; 0x1770 <.L18>

00001796 <.LM60>:
    1796:	14 c0       	rjmp	.+40     	; 0x17c0 <.L19>

00001798 <.L64>:
    1798:	6c 89       	ldd	r22, Y+20	; 0x14
    179a:	7d 89       	ldd	r23, Y+21	; 0x15
    179c:	8e 89       	ldd	r24, Y+22	; 0x16
    179e:	9f 89       	ldd	r25, Y+23	; 0x17
    17a0:	0e 94 6a 11 	call	0x22d4	; 0x22d4 <__fixunssfsi>
    17a4:	dc 01       	movw	r26, r24
    17a6:	cb 01       	movw	r24, r22
    17a8:	99 8f       	std	Y+25, r25	; 0x19
    17aa:	88 8f       	std	Y+24, r24	; 0x18

000017ac <.L14>:
    17ac:	88 8d       	ldd	r24, Y+24	; 0x18
    17ae:	99 8d       	ldd	r25, Y+25	; 0x19
    17b0:	9d 8f       	std	Y+29, r25	; 0x1d
    17b2:	8c 8f       	std	Y+28, r24	; 0x1c

000017b4 <.LM62>:
    17b4:	8c 8d       	ldd	r24, Y+28	; 0x1c
    17b6:	9d 8d       	ldd	r25, Y+29	; 0x1d

000017b8 <.L1^B4>:
    17b8:	01 97       	sbiw	r24, 0x01	; 1
    17ba:	f1 f7       	brne	.-4      	; 0x17b8 <.L1^B4>
    17bc:	9d 8f       	std	Y+29, r25	; 0x1d
    17be:	8c 8f       	std	Y+28, r24	; 0x1c

000017c0 <.L19>:
    17c0:	81 e0       	ldi	r24, 0x01	; 1
    17c2:	80 93 ac 00 	sts	0x00AC, r24	; 0x8000ac <flag>

000017c6 <.LM64>:
    17c6:	68 c2       	rjmp	.+1232   	; 0x1c98 <.L20>

000017c8 <.L49>:
    17c8:	89 81       	ldd	r24, Y+1	; 0x01
    17ca:	08 2f       	mov	r16, r24
    17cc:	10 e0       	ldi	r17, 0x00	; 0

000017ce <.LM66>:
    17ce:	0e 94 4c 0a 	call	0x1498	; 0x1498 <USART_Receive>
    17d2:	28 2f       	mov	r18, r24

000017d4 <.LM67>:
    17d4:	ce 01       	movw	r24, r28
    17d6:	88 5b       	subi	r24, 0xB8	; 184
    17d8:	9f 4f       	sbci	r25, 0xFF	; 255
    17da:	80 0f       	add	r24, r16
    17dc:	91 1f       	adc	r25, r17
    17de:	fc 01       	movw	r30, r24
    17e0:	20 83       	st	Z, r18

000017e2 <.LM68>:
    17e2:	89 81       	ldd	r24, Y+1	; 0x01
    17e4:	88 23       	and	r24, r24
    17e6:	81 f4       	brne	.+32     	; 0x1808 <.L21>

000017e8 <.LM69>:
    17e8:	89 81       	ldd	r24, Y+1	; 0x01
    17ea:	88 2f       	mov	r24, r24
    17ec:	90 e0       	ldi	r25, 0x00	; 0
    17ee:	9e 01       	movw	r18, r28
    17f0:	28 5b       	subi	r18, 0xB8	; 184
    17f2:	3f 4f       	sbci	r19, 0xFF	; 255
    17f4:	82 0f       	add	r24, r18
    17f6:	93 1f       	adc	r25, r19
    17f8:	fc 01       	movw	r30, r24
    17fa:	80 81       	ld	r24, Z
    17fc:	0e 94 94 08 	call	0x1128	; 0x1128 <LCD_SendData_4BitMode>

00001800 <.LM70>:
    1800:	89 81       	ldd	r24, Y+1	; 0x01
    1802:	8f 5f       	subi	r24, 0xFF	; 255
    1804:	89 83       	std	Y+1, r24	; 0x01
    1806:	26 c0       	rjmp	.+76     	; 0x1854 <.L22>

00001808 <.L21>:
    1808:	89 81       	ldd	r24, Y+1	; 0x01
    180a:	88 2f       	mov	r24, r24
    180c:	90 e0       	ldi	r25, 0x00	; 0
    180e:	01 97       	sbiw	r24, 0x01	; 1

00001810 <.LM72>:
    1810:	9e 01       	movw	r18, r28
    1812:	28 5b       	subi	r18, 0xB8	; 184
    1814:	3f 4f       	sbci	r19, 0xFF	; 255
    1816:	82 0f       	add	r24, r18
    1818:	93 1f       	adc	r25, r19
    181a:	fc 01       	movw	r30, r24
    181c:	40 81       	ld	r20, Z

0000181e <.LM73>:
    181e:	89 81       	ldd	r24, Y+1	; 0x01
    1820:	88 2f       	mov	r24, r24
    1822:	90 e0       	ldi	r25, 0x00	; 0
    1824:	9e 01       	movw	r18, r28
    1826:	28 5b       	subi	r18, 0xB8	; 184
    1828:	3f 4f       	sbci	r19, 0xFF	; 255
    182a:	82 0f       	add	r24, r18
    182c:	93 1f       	adc	r25, r19
    182e:	fc 01       	movw	r30, r24
    1830:	80 81       	ld	r24, Z

00001832 <.LM74>:
    1832:	48 17       	cp	r20, r24
    1834:	79 f0       	breq	.+30     	; 0x1854 <.L22>

00001836 <.LM75>:
    1836:	89 81       	ldd	r24, Y+1	; 0x01
    1838:	88 2f       	mov	r24, r24
    183a:	90 e0       	ldi	r25, 0x00	; 0
    183c:	9e 01       	movw	r18, r28
    183e:	28 5b       	subi	r18, 0xB8	; 184
    1840:	3f 4f       	sbci	r19, 0xFF	; 255
    1842:	82 0f       	add	r24, r18
    1844:	93 1f       	adc	r25, r19
    1846:	fc 01       	movw	r30, r24
    1848:	80 81       	ld	r24, Z
    184a:	0e 94 94 08 	call	0x1128	; 0x1128 <LCD_SendData_4BitMode>

0000184e <.LM76>:
    184e:	89 81       	ldd	r24, Y+1	; 0x01
    1850:	8f 5f       	subi	r24, 0xFF	; 255
    1852:	89 83       	std	Y+1, r24	; 0x01

00001854 <.L22>:
    1854:	89 81       	ldd	r24, Y+1	; 0x01
    1856:	84 30       	cpi	r24, 0x04	; 4
    1858:	09 f0       	breq	.+2      	; 0x185c <.LM78>

0000185a <L0^A>:
    185a:	1e c2       	rjmp	.+1084   	; 0x1c98 <.L20>

0000185c <.LM78>:
    185c:	ce 01       	movw	r24, r28
    185e:	88 5b       	subi	r24, 0xB8	; 184
    1860:	9f 4f       	sbci	r25, 0xFF	; 255
    1862:	fc 01       	movw	r30, r24
    1864:	90 81       	ld	r25, Z

00001866 <.LM79>:
    1866:	80 91 60 00 	lds	r24, 0x0060	; 0x800060 <code>

0000186a <.LM80>:
    186a:	98 17       	cp	r25, r24
    186c:	09 f0       	breq	.+2      	; 0x1870 <.LM81>

0000186e <L0^A>:
    186e:	48 c1       	rjmp	.+656    	; 0x1b00 <.L23>

00001870 <.LM81>:
    1870:	ce 01       	movw	r24, r28
    1872:	88 5b       	subi	r24, 0xB8	; 184
    1874:	9f 4f       	sbci	r25, 0xFF	; 255
    1876:	fc 01       	movw	r30, r24
    1878:	91 81       	ldd	r25, Z+1	; 0x01

0000187a <.LM82>:
    187a:	80 91 61 00 	lds	r24, 0x0061	; 0x800061 <code+0x1>

0000187e <.LM83>:
    187e:	98 17       	cp	r25, r24
    1880:	09 f0       	breq	.+2      	; 0x1884 <.LM84>

00001882 <L0^A>:
    1882:	3e c1       	rjmp	.+636    	; 0x1b00 <.L23>

00001884 <.LM84>:
    1884:	ce 01       	movw	r24, r28
    1886:	88 5b       	subi	r24, 0xB8	; 184
    1888:	9f 4f       	sbci	r25, 0xFF	; 255
    188a:	fc 01       	movw	r30, r24
    188c:	92 81       	ldd	r25, Z+2	; 0x02

0000188e <.LM85>:
    188e:	80 91 62 00 	lds	r24, 0x0062	; 0x800062 <code+0x2>

00001892 <.LM86>:
    1892:	98 17       	cp	r25, r24
    1894:	09 f0       	breq	.+2      	; 0x1898 <.LM87>

00001896 <L0^A>:
    1896:	34 c1       	rjmp	.+616    	; 0x1b00 <.L23>

00001898 <.LM87>:
    1898:	ce 01       	movw	r24, r28
    189a:	88 5b       	subi	r24, 0xB8	; 184
    189c:	9f 4f       	sbci	r25, 0xFF	; 255
    189e:	fc 01       	movw	r30, r24
    18a0:	93 81       	ldd	r25, Z+3	; 0x03

000018a2 <.LM88>:
    18a2:	80 91 63 00 	lds	r24, 0x0063	; 0x800063 <code+0x3>

000018a6 <.LM89>:
    18a6:	98 17       	cp	r25, r24
    18a8:	09 f0       	breq	.+2      	; 0x18ac <.LM90>

000018aa <L0^A>:
    18aa:	2a c1       	rjmp	.+596    	; 0x1b00 <.L23>

000018ac <.LM90>:
    18ac:	81 e0       	ldi	r24, 0x01	; 1
    18ae:	0e 94 73 05 	call	0xae6	; 0xae6 <EXTI_Enable>

000018b2 <.LM91>:
    18b2:	80 e1       	ldi	r24, 0x10	; 16
    18b4:	0e 94 70 06 	call	0xce0	; 0xce0 <LCD_SendCommands>

000018b8 <.LM92>:
    18b8:	81 e0       	ldi	r24, 0x01	; 1
    18ba:	0e 94 70 06 	call	0xce0	; 0xce0 <LCD_SendCommands>

000018be <.LM93>:
    18be:	8b e7       	ldi	r24, 0x7B	; 123
    18c0:	90 e0       	ldi	r25, 0x00	; 0
    18c2:	0e 94 19 09 	call	0x1232	; 0x1232 <LCD_String>
    18c6:	80 e0       	ldi	r24, 0x00	; 0
    18c8:	90 e8       	ldi	r25, 0x80	; 128
    18ca:	ab eb       	ldi	r26, 0xBB	; 187
    18cc:	b4 e4       	ldi	r27, 0x44	; 68
    18ce:	8c a7       	std	Y+44, r24	; 0x2c
    18d0:	9d a7       	std	Y+45, r25	; 0x2d
    18d2:	ae a7       	std	Y+46, r26	; 0x2e
    18d4:	bf a7       	std	Y+47, r27	; 0x2f

000018d6 <.LM94>:
    18d6:	20 e0       	ldi	r18, 0x00	; 0
    18d8:	30 e0       	ldi	r19, 0x00	; 0
    18da:	4a ef       	ldi	r20, 0xFA	; 250
    18dc:	54 e4       	ldi	r21, 0x44	; 68
    18de:	6c a5       	ldd	r22, Y+44	; 0x2c
    18e0:	7d a5       	ldd	r23, Y+45	; 0x2d
    18e2:	8e a5       	ldd	r24, Y+46	; 0x2e
    18e4:	9f a5       	ldd	r25, Y+47	; 0x2f
    18e6:	0e 94 eb 11 	call	0x23d6	; 0x23d6 <__mulsf3>
    18ea:	dc 01       	movw	r26, r24
    18ec:	cb 01       	movw	r24, r22
    18ee:	88 ab       	std	Y+48, r24	; 0x30
    18f0:	99 ab       	std	Y+49, r25	; 0x31
    18f2:	aa ab       	std	Y+50, r26	; 0x32
    18f4:	bb ab       	std	Y+51, r27	; 0x33

000018f6 <.LM95>:
    18f6:	20 e0       	ldi	r18, 0x00	; 0
    18f8:	30 e0       	ldi	r19, 0x00	; 0
    18fa:	40 e8       	ldi	r20, 0x80	; 128
    18fc:	5f e3       	ldi	r21, 0x3F	; 63
    18fe:	68 a9       	ldd	r22, Y+48	; 0x30
    1900:	79 a9       	ldd	r23, Y+49	; 0x31
    1902:	8a a9       	ldd	r24, Y+50	; 0x32
    1904:	9b a9       	ldd	r25, Y+51	; 0x33
    1906:	0e 94 65 11 	call	0x22ca	; 0x22ca <__cmpsf2>
    190a:	88 23       	and	r24, r24
    190c:	2c f4       	brge	.+10     	; 0x1918 <.L65>

0000190e <.LM96>:
    190e:	81 e0       	ldi	r24, 0x01	; 1
    1910:	90 e0       	ldi	r25, 0x00	; 0
    1912:	9d ab       	std	Y+53, r25	; 0x35
    1914:	8c ab       	std	Y+52, r24	; 0x34
    1916:	3f c0       	rjmp	.+126    	; 0x1996 <.L26>

00001918 <.L65>:
    1918:	20 e0       	ldi	r18, 0x00	; 0
    191a:	3f ef       	ldi	r19, 0xFF	; 255
    191c:	4f e7       	ldi	r20, 0x7F	; 127
    191e:	57 e4       	ldi	r21, 0x47	; 71
    1920:	68 a9       	ldd	r22, Y+48	; 0x30
    1922:	79 a9       	ldd	r23, Y+49	; 0x31
    1924:	8a a9       	ldd	r24, Y+50	; 0x32
    1926:	9b a9       	ldd	r25, Y+51	; 0x33
    1928:	0e 94 e6 11 	call	0x23cc	; 0x23cc <__gesf2>
    192c:	18 16       	cp	r1, r24
    192e:	4c f5       	brge	.+82     	; 0x1982 <.L66>

00001930 <.LM98>:
    1930:	20 e0       	ldi	r18, 0x00	; 0
    1932:	30 e0       	ldi	r19, 0x00	; 0
    1934:	40 e2       	ldi	r20, 0x20	; 32
    1936:	51 e4       	ldi	r21, 0x41	; 65
    1938:	6c a5       	ldd	r22, Y+44	; 0x2c
    193a:	7d a5       	ldd	r23, Y+45	; 0x2d
    193c:	8e a5       	ldd	r24, Y+46	; 0x2e
    193e:	9f a5       	ldd	r25, Y+47	; 0x2f
    1940:	0e 94 eb 11 	call	0x23d6	; 0x23d6 <__mulsf3>
    1944:	dc 01       	movw	r26, r24
    1946:	cb 01       	movw	r24, r22

00001948 <.LM99>:
    1948:	bc 01       	movw	r22, r24
    194a:	cd 01       	movw	r24, r26
    194c:	0e 94 6a 11 	call	0x22d4	; 0x22d4 <__fixunssfsi>
    1950:	dc 01       	movw	r26, r24
    1952:	cb 01       	movw	r24, r22
    1954:	9d ab       	std	Y+53, r25	; 0x35
    1956:	8c ab       	std	Y+52, r24	; 0x34
    1958:	0f c0       	rjmp	.+30     	; 0x1978 <.L29>

0000195a <.L30>:
    195a:	88 ec       	ldi	r24, 0xC8	; 200
    195c:	90 e0       	ldi	r25, 0x00	; 0
    195e:	9f ab       	std	Y+55, r25	; 0x37
    1960:	8e ab       	std	Y+54, r24	; 0x36

00001962 <.LM100>:
    1962:	8e a9       	ldd	r24, Y+54	; 0x36
    1964:	9f a9       	ldd	r25, Y+55	; 0x37

00001966 <.L1^B5>:
    1966:	01 97       	sbiw	r24, 0x01	; 1
    1968:	f1 f7       	brne	.-4      	; 0x1966 <.L1^B5>
    196a:	9f ab       	std	Y+55, r25	; 0x37
    196c:	8e ab       	std	Y+54, r24	; 0x36

0000196e <.LM101>:
    196e:	8c a9       	ldd	r24, Y+52	; 0x34
    1970:	9d a9       	ldd	r25, Y+53	; 0x35
    1972:	01 97       	sbiw	r24, 0x01	; 1
    1974:	9d ab       	std	Y+53, r25	; 0x35
    1976:	8c ab       	std	Y+52, r24	; 0x34

00001978 <.L29>:
    1978:	8c a9       	ldd	r24, Y+52	; 0x34
    197a:	9d a9       	ldd	r25, Y+53	; 0x35
    197c:	89 2b       	or	r24, r25
    197e:	69 f7       	brne	.-38     	; 0x195a <.L30>

00001980 <.LM103>:
    1980:	14 c0       	rjmp	.+40     	; 0x19aa <.L31>

00001982 <.L66>:
    1982:	68 a9       	ldd	r22, Y+48	; 0x30
    1984:	79 a9       	ldd	r23, Y+49	; 0x31
    1986:	8a a9       	ldd	r24, Y+50	; 0x32
    1988:	9b a9       	ldd	r25, Y+51	; 0x33
    198a:	0e 94 6a 11 	call	0x22d4	; 0x22d4 <__fixunssfsi>
    198e:	dc 01       	movw	r26, r24
    1990:	cb 01       	movw	r24, r22
    1992:	9d ab       	std	Y+53, r25	; 0x35
    1994:	8c ab       	std	Y+52, r24	; 0x34

00001996 <.L26>:
    1996:	8c a9       	ldd	r24, Y+52	; 0x34
    1998:	9d a9       	ldd	r25, Y+53	; 0x35
    199a:	99 af       	std	Y+57, r25	; 0x39
    199c:	88 af       	std	Y+56, r24	; 0x38

0000199e <.LM105>:
    199e:	88 ad       	ldd	r24, Y+56	; 0x38
    19a0:	99 ad       	ldd	r25, Y+57	; 0x39

000019a2 <.L1^B6>:
    19a2:	01 97       	sbiw	r24, 0x01	; 1
    19a4:	f1 f7       	brne	.-4      	; 0x19a2 <.L1^B6>
    19a6:	99 af       	std	Y+57, r25	; 0x39
    19a8:	88 af       	std	Y+56, r24	; 0x38

000019aa <.L31>:
    19aa:	80 e0       	ldi	r24, 0x00	; 0
    19ac:	0e 94 90 00 	call	0x120	; 0x120 <ADC_Start>

000019b0 <.LM107>:
    19b0:	0e 94 c4 00 	call	0x188	; 0x188 <ADC_Result>

000019b4 <.LM108>:
    19b4:	90 93 b1 00 	sts	0x00B1, r25	; 0x8000b1 <digital+0x1>
    19b8:	80 93 b0 00 	sts	0x00B0, r24	; 0x8000b0 <digital>

000019bc <.LM109>:
    19bc:	80 91 b0 00 	lds	r24, 0x00B0	; 0x8000b0 <digital>
    19c0:	90 91 b1 00 	lds	r25, 0x00B1	; 0x8000b1 <digital+0x1>
    19c4:	0e 94 d0 00 	call	0x1a0	; 0x1a0 <Analog_Value>

000019c8 <.LM110>:
    19c8:	90 93 af 00 	sts	0x00AF, r25	; 0x8000af <temp+0x1>
    19cc:	80 93 ae 00 	sts	0x00AE, r24	; 0x8000ae <temp>

000019d0 <.LM111>:
    19d0:	80 e1       	ldi	r24, 0x10	; 16
    19d2:	0e 94 70 06 	call	0xce0	; 0xce0 <LCD_SendCommands>

000019d6 <.LM112>:
    19d6:	81 e0       	ldi	r24, 0x01	; 1
    19d8:	0e 94 70 06 	call	0xce0	; 0xce0 <LCD_SendCommands>

000019dc <.LM113>:
    19dc:	83 e8       	ldi	r24, 0x83	; 131
    19de:	90 e0       	ldi	r25, 0x00	; 0
    19e0:	0e 94 19 09 	call	0x1232	; 0x1232 <LCD_String>

000019e4 <.LM114>:
    19e4:	80 91 ae 00 	lds	r24, 0x00AE	; 0x8000ae <temp>
    19e8:	90 91 af 00 	lds	r25, 0x00AF	; 0x8000af <temp+0x1>

000019ec <.LM115>:
    19ec:	9c 01       	movw	r18, r24
    19ee:	ad ec       	ldi	r26, 0xCD	; 205
    19f0:	bc ec       	ldi	r27, 0xCC	; 204
    19f2:	0e 94 4b 11 	call	0x2296	; 0x2296 <__umulhisi3>
    19f6:	96 95       	lsr	r25
    19f8:	87 95       	ror	r24
    19fa:	96 95       	lsr	r25
    19fc:	87 95       	ror	r24
    19fe:	96 95       	lsr	r25
    1a00:	87 95       	ror	r24

00001a02 <.LM116>:
    1a02:	0e 94 a7 08 	call	0x114e	; 0x114e <LCD_SendNumbers>

00001a06 <.LM117>:
    1a06:	80 91 ae 00 	lds	r24, 0x00AE	; 0x8000ae <temp>
    1a0a:	90 91 af 00 	lds	r25, 0x00AF	; 0x8000af <temp+0x1>
    1a0e:	90 93 ab 00 	sts	0x00AB, r25	; 0x8000ab <temp_prev+0x1>
    1a12:	80 93 aa 00 	sts	0x00AA, r24	; 0x8000aa <temp_prev>
    1a16:	80 e0       	ldi	r24, 0x00	; 0
    1a18:	90 e8       	ldi	r25, 0x80	; 128
    1a1a:	ab eb       	ldi	r26, 0xBB	; 187
    1a1c:	b4 e4       	ldi	r27, 0x44	; 68
    1a1e:	8e 8f       	std	Y+30, r24	; 0x1e
    1a20:	9f 8f       	std	Y+31, r25	; 0x1f
    1a22:	a8 a3       	std	Y+32, r26	; 0x20
    1a24:	b9 a3       	std	Y+33, r27	; 0x21

00001a26 <.LM118>:
    1a26:	20 e0       	ldi	r18, 0x00	; 0
    1a28:	30 e0       	ldi	r19, 0x00	; 0
    1a2a:	4a ef       	ldi	r20, 0xFA	; 250
    1a2c:	54 e4       	ldi	r21, 0x44	; 68
    1a2e:	6e 8d       	ldd	r22, Y+30	; 0x1e
    1a30:	7f 8d       	ldd	r23, Y+31	; 0x1f
    1a32:	88 a1       	ldd	r24, Y+32	; 0x20
    1a34:	99 a1       	ldd	r25, Y+33	; 0x21
    1a36:	0e 94 eb 11 	call	0x23d6	; 0x23d6 <__mulsf3>
    1a3a:	dc 01       	movw	r26, r24
    1a3c:	cb 01       	movw	r24, r22
    1a3e:	8a a3       	std	Y+34, r24	; 0x22
    1a40:	9b a3       	std	Y+35, r25	; 0x23
    1a42:	ac a3       	std	Y+36, r26	; 0x24
    1a44:	bd a3       	std	Y+37, r27	; 0x25

00001a46 <.LM119>:
    1a46:	20 e0       	ldi	r18, 0x00	; 0
    1a48:	30 e0       	ldi	r19, 0x00	; 0
    1a4a:	40 e8       	ldi	r20, 0x80	; 128
    1a4c:	5f e3       	ldi	r21, 0x3F	; 63
    1a4e:	6a a1       	ldd	r22, Y+34	; 0x22
    1a50:	7b a1       	ldd	r23, Y+35	; 0x23
    1a52:	8c a1       	ldd	r24, Y+36	; 0x24
    1a54:	9d a1       	ldd	r25, Y+37	; 0x25
    1a56:	0e 94 65 11 	call	0x22ca	; 0x22ca <__cmpsf2>
    1a5a:	88 23       	and	r24, r24
    1a5c:	2c f4       	brge	.+10     	; 0x1a68 <.L67>

00001a5e <.LM120>:
    1a5e:	81 e0       	ldi	r24, 0x01	; 1
    1a60:	90 e0       	ldi	r25, 0x00	; 0
    1a62:	9f a3       	std	Y+39, r25	; 0x27
    1a64:	8e a3       	std	Y+38, r24	; 0x26
    1a66:	3f c0       	rjmp	.+126    	; 0x1ae6 <.L34>

00001a68 <.L67>:
    1a68:	20 e0       	ldi	r18, 0x00	; 0
    1a6a:	3f ef       	ldi	r19, 0xFF	; 255
    1a6c:	4f e7       	ldi	r20, 0x7F	; 127
    1a6e:	57 e4       	ldi	r21, 0x47	; 71
    1a70:	6a a1       	ldd	r22, Y+34	; 0x22
    1a72:	7b a1       	ldd	r23, Y+35	; 0x23
    1a74:	8c a1       	ldd	r24, Y+36	; 0x24
    1a76:	9d a1       	ldd	r25, Y+37	; 0x25
    1a78:	0e 94 e6 11 	call	0x23cc	; 0x23cc <__gesf2>
    1a7c:	18 16       	cp	r1, r24
    1a7e:	4c f5       	brge	.+82     	; 0x1ad2 <.L68>

00001a80 <.LM122>:
    1a80:	20 e0       	ldi	r18, 0x00	; 0
    1a82:	30 e0       	ldi	r19, 0x00	; 0
    1a84:	40 e2       	ldi	r20, 0x20	; 32
    1a86:	51 e4       	ldi	r21, 0x41	; 65
    1a88:	6e 8d       	ldd	r22, Y+30	; 0x1e
    1a8a:	7f 8d       	ldd	r23, Y+31	; 0x1f
    1a8c:	88 a1       	ldd	r24, Y+32	; 0x20
    1a8e:	99 a1       	ldd	r25, Y+33	; 0x21
    1a90:	0e 94 eb 11 	call	0x23d6	; 0x23d6 <__mulsf3>
    1a94:	dc 01       	movw	r26, r24
    1a96:	cb 01       	movw	r24, r22

00001a98 <.LM123>:
    1a98:	bc 01       	movw	r22, r24
    1a9a:	cd 01       	movw	r24, r26
    1a9c:	0e 94 6a 11 	call	0x22d4	; 0x22d4 <__fixunssfsi>
    1aa0:	dc 01       	movw	r26, r24
    1aa2:	cb 01       	movw	r24, r22
    1aa4:	9f a3       	std	Y+39, r25	; 0x27
    1aa6:	8e a3       	std	Y+38, r24	; 0x26
    1aa8:	0f c0       	rjmp	.+30     	; 0x1ac8 <.L37>

00001aaa <.L38>:
    1aaa:	88 ec       	ldi	r24, 0xC8	; 200
    1aac:	90 e0       	ldi	r25, 0x00	; 0
    1aae:	99 a7       	std	Y+41, r25	; 0x29
    1ab0:	88 a7       	std	Y+40, r24	; 0x28

00001ab2 <.LM124>:
    1ab2:	88 a5       	ldd	r24, Y+40	; 0x28
    1ab4:	99 a5       	ldd	r25, Y+41	; 0x29

00001ab6 <.L1^B7>:
    1ab6:	01 97       	sbiw	r24, 0x01	; 1
    1ab8:	f1 f7       	brne	.-4      	; 0x1ab6 <.L1^B7>
    1aba:	99 a7       	std	Y+41, r25	; 0x29
    1abc:	88 a7       	std	Y+40, r24	; 0x28

00001abe <.LM125>:
    1abe:	8e a1       	ldd	r24, Y+38	; 0x26
    1ac0:	9f a1       	ldd	r25, Y+39	; 0x27
    1ac2:	01 97       	sbiw	r24, 0x01	; 1
    1ac4:	9f a3       	std	Y+39, r25	; 0x27
    1ac6:	8e a3       	std	Y+38, r24	; 0x26

00001ac8 <.L37>:
    1ac8:	8e a1       	ldd	r24, Y+38	; 0x26
    1aca:	9f a1       	ldd	r25, Y+39	; 0x27
    1acc:	89 2b       	or	r24, r25
    1ace:	69 f7       	brne	.-38     	; 0x1aaa <.L38>

00001ad0 <.LM127>:
    1ad0:	14 c0       	rjmp	.+40     	; 0x1afa <.L39>

00001ad2 <.L68>:
    1ad2:	6a a1       	ldd	r22, Y+34	; 0x22
    1ad4:	7b a1       	ldd	r23, Y+35	; 0x23
    1ad6:	8c a1       	ldd	r24, Y+36	; 0x24
    1ad8:	9d a1       	ldd	r25, Y+37	; 0x25
    1ada:	0e 94 6a 11 	call	0x22d4	; 0x22d4 <__fixunssfsi>
    1ade:	dc 01       	movw	r26, r24
    1ae0:	cb 01       	movw	r24, r22
    1ae2:	9f a3       	std	Y+39, r25	; 0x27
    1ae4:	8e a3       	std	Y+38, r24	; 0x26

00001ae6 <.L34>:
    1ae6:	8e a1       	ldd	r24, Y+38	; 0x26
    1ae8:	9f a1       	ldd	r25, Y+39	; 0x27
    1aea:	9b a7       	std	Y+43, r25	; 0x2b
    1aec:	8a a7       	std	Y+42, r24	; 0x2a

00001aee <.LM129>:
    1aee:	8a a5       	ldd	r24, Y+42	; 0x2a
    1af0:	9b a5       	ldd	r25, Y+43	; 0x2b

00001af2 <.L1^B8>:
    1af2:	01 97       	sbiw	r24, 0x01	; 1
    1af4:	f1 f7       	brne	.-4      	; 0x1af2 <.L1^B8>
    1af6:	9b a7       	std	Y+43, r25	; 0x2b
    1af8:	8a a7       	std	Y+42, r24	; 0x2a

00001afa <.L39>:
    1afa:	0e 94 52 0e 	call	0x1ca4	; 0x1ca4 <System_ON>
    1afe:	c9 c0       	rjmp	.+402    	; 0x1c92 <.L40>

00001b00 <.L23>:
    1b00:	80 e1       	ldi	r24, 0x10	; 16
    1b02:	0e 94 70 06 	call	0xce0	; 0xce0 <LCD_SendCommands>

00001b06 <.LM132>:
    1b06:	81 e0       	ldi	r24, 0x01	; 1
    1b08:	0e 94 70 06 	call	0xce0	; 0xce0 <LCD_SendCommands>

00001b0c <.LM133>:
    1b0c:	81 e9       	ldi	r24, 0x91	; 145
    1b0e:	90 e0       	ldi	r25, 0x00	; 0
    1b10:	0e 94 19 09 	call	0x1232	; 0x1232 <LCD_String>
    1b14:	80 e0       	ldi	r24, 0x00	; 0
    1b16:	90 e8       	ldi	r25, 0x80	; 128
    1b18:	ab eb       	ldi	r26, 0xBB	; 187
    1b1a:	b4 e4       	ldi	r27, 0x44	; 68
    1b1c:	8a af       	std	Y+58, r24	; 0x3a
    1b1e:	9b af       	std	Y+59, r25	; 0x3b
    1b20:	ac af       	std	Y+60, r26	; 0x3c
    1b22:	bd af       	std	Y+61, r27	; 0x3d

00001b24 <.LM134>:
    1b24:	8e 01       	movw	r16, r28
    1b26:	02 5c       	subi	r16, 0xC2	; 194
    1b28:	1f 4f       	sbci	r17, 0xFF	; 255
    1b2a:	20 e0       	ldi	r18, 0x00	; 0
    1b2c:	30 e0       	ldi	r19, 0x00	; 0
    1b2e:	4a ef       	ldi	r20, 0xFA	; 250
    1b30:	54 e4       	ldi	r21, 0x44	; 68
    1b32:	6a ad       	ldd	r22, Y+58	; 0x3a
    1b34:	7b ad       	ldd	r23, Y+59	; 0x3b
    1b36:	8c ad       	ldd	r24, Y+60	; 0x3c
    1b38:	9d ad       	ldd	r25, Y+61	; 0x3d
    1b3a:	0e 94 eb 11 	call	0x23d6	; 0x23d6 <__mulsf3>
    1b3e:	dc 01       	movw	r26, r24
    1b40:	cb 01       	movw	r24, r22
    1b42:	f8 01       	movw	r30, r16
    1b44:	80 83       	st	Z, r24
    1b46:	91 83       	std	Z+1, r25	; 0x01
    1b48:	a2 83       	std	Z+2, r26	; 0x02
    1b4a:	b3 83       	std	Z+3, r27	; 0x03

00001b4c <.LM135>:
    1b4c:	ce 01       	movw	r24, r28
    1b4e:	ce 96       	adiw	r24, 0x3e	; 62
    1b50:	20 e0       	ldi	r18, 0x00	; 0
    1b52:	30 e0       	ldi	r19, 0x00	; 0
    1b54:	40 e8       	ldi	r20, 0x80	; 128
    1b56:	5f e3       	ldi	r21, 0x3F	; 63
    1b58:	fc 01       	movw	r30, r24
    1b5a:	60 81       	ld	r22, Z
    1b5c:	71 81       	ldd	r23, Z+1	; 0x01
    1b5e:	82 81       	ldd	r24, Z+2	; 0x02
    1b60:	93 81       	ldd	r25, Z+3	; 0x03
    1b62:	0e 94 65 11 	call	0x22ca	; 0x22ca <__cmpsf2>
    1b66:	88 23       	and	r24, r24
    1b68:	4c f4       	brge	.+18     	; 0x1b7c <.L69>

00001b6a <.LM136>:
    1b6a:	ce 01       	movw	r24, r28
    1b6c:	8e 5b       	subi	r24, 0xBE	; 190
    1b6e:	9f 4f       	sbci	r25, 0xFF	; 255
    1b70:	21 e0       	ldi	r18, 0x01	; 1
    1b72:	30 e0       	ldi	r19, 0x00	; 0
    1b74:	fc 01       	movw	r30, r24
    1b76:	31 83       	std	Z+1, r19	; 0x01
    1b78:	20 83       	st	Z, r18
    1b7a:	67 c0       	rjmp	.+206    	; 0x1c4a <.L43>

00001b7c <.L69>:
    1b7c:	ce 01       	movw	r24, r28
    1b7e:	ce 96       	adiw	r24, 0x3e	; 62
    1b80:	20 e0       	ldi	r18, 0x00	; 0
    1b82:	3f ef       	ldi	r19, 0xFF	; 255
    1b84:	4f e7       	ldi	r20, 0x7F	; 127
    1b86:	57 e4       	ldi	r21, 0x47	; 71
    1b88:	fc 01       	movw	r30, r24
    1b8a:	60 81       	ld	r22, Z
    1b8c:	71 81       	ldd	r23, Z+1	; 0x01
    1b8e:	82 81       	ldd	r24, Z+2	; 0x02
    1b90:	93 81       	ldd	r25, Z+3	; 0x03
    1b92:	0e 94 e6 11 	call	0x23cc	; 0x23cc <__gesf2>
    1b96:	18 16       	cp	r1, r24
    1b98:	0c f0       	brlt	.+2      	; 0x1b9c <.LM138>

00001b9a <L0^A>:
    1b9a:	46 c0       	rjmp	.+140    	; 0x1c28 <.L70>

00001b9c <.LM138>:
    1b9c:	20 e0       	ldi	r18, 0x00	; 0
    1b9e:	30 e0       	ldi	r19, 0x00	; 0
    1ba0:	40 e2       	ldi	r20, 0x20	; 32
    1ba2:	51 e4       	ldi	r21, 0x41	; 65
    1ba4:	6a ad       	ldd	r22, Y+58	; 0x3a
    1ba6:	7b ad       	ldd	r23, Y+59	; 0x3b
    1ba8:	8c ad       	ldd	r24, Y+60	; 0x3c
    1baa:	9d ad       	ldd	r25, Y+61	; 0x3d
    1bac:	0e 94 eb 11 	call	0x23d6	; 0x23d6 <__mulsf3>
    1bb0:	dc 01       	movw	r26, r24
    1bb2:	cb 01       	movw	r24, r22

00001bb4 <.LM139>:
    1bb4:	8e 01       	movw	r16, r28
    1bb6:	0e 5b       	subi	r16, 0xBE	; 190
    1bb8:	1f 4f       	sbci	r17, 0xFF	; 255
    1bba:	bc 01       	movw	r22, r24
    1bbc:	cd 01       	movw	r24, r26
    1bbe:	0e 94 6a 11 	call	0x22d4	; 0x22d4 <__fixunssfsi>
    1bc2:	dc 01       	movw	r26, r24
    1bc4:	cb 01       	movw	r24, r22
    1bc6:	f8 01       	movw	r30, r16
    1bc8:	91 83       	std	Z+1, r25	; 0x01
    1bca:	80 83       	st	Z, r24
    1bcc:	24 c0       	rjmp	.+72     	; 0x1c16 <.L46>

00001bce <.L47>:
    1bce:	ce 01       	movw	r24, r28
    1bd0:	8c 5b       	subi	r24, 0xBC	; 188
    1bd2:	9f 4f       	sbci	r25, 0xFF	; 255
    1bd4:	28 ec       	ldi	r18, 0xC8	; 200
    1bd6:	30 e0       	ldi	r19, 0x00	; 0
    1bd8:	fc 01       	movw	r30, r24
    1bda:	31 83       	std	Z+1, r19	; 0x01
    1bdc:	20 83       	st	Z, r18

00001bde <.LM140>:
    1bde:	ce 01       	movw	r24, r28
    1be0:	8c 5b       	subi	r24, 0xBC	; 188
    1be2:	9f 4f       	sbci	r25, 0xFF	; 255
    1be4:	fc 01       	movw	r30, r24
    1be6:	80 81       	ld	r24, Z
    1be8:	91 81       	ldd	r25, Z+1	; 0x01

00001bea <.L1^B9>:
    1bea:	01 97       	sbiw	r24, 0x01	; 1
    1bec:	f1 f7       	brne	.-4      	; 0x1bea <.L1^B9>
    1bee:	9e 01       	movw	r18, r28
    1bf0:	2c 5b       	subi	r18, 0xBC	; 188
    1bf2:	3f 4f       	sbci	r19, 0xFF	; 255
    1bf4:	f9 01       	movw	r30, r18
    1bf6:	91 83       	std	Z+1, r25	; 0x01
    1bf8:	80 83       	st	Z, r24

00001bfa <.LM141>:
    1bfa:	ce 01       	movw	r24, r28
    1bfc:	8e 5b       	subi	r24, 0xBE	; 190
    1bfe:	9f 4f       	sbci	r25, 0xFF	; 255
    1c00:	9e 01       	movw	r18, r28
    1c02:	2e 5b       	subi	r18, 0xBE	; 190
    1c04:	3f 4f       	sbci	r19, 0xFF	; 255
    1c06:	f9 01       	movw	r30, r18
    1c08:	20 81       	ld	r18, Z
    1c0a:	31 81       	ldd	r19, Z+1	; 0x01
    1c0c:	21 50       	subi	r18, 0x01	; 1
    1c0e:	31 09       	sbc	r19, r1
    1c10:	fc 01       	movw	r30, r24
    1c12:	31 83       	std	Z+1, r19	; 0x01
    1c14:	20 83       	st	Z, r18

00001c16 <.L46>:
    1c16:	ce 01       	movw	r24, r28
    1c18:	8e 5b       	subi	r24, 0xBE	; 190
    1c1a:	9f 4f       	sbci	r25, 0xFF	; 255
    1c1c:	fc 01       	movw	r30, r24
    1c1e:	80 81       	ld	r24, Z
    1c20:	91 81       	ldd	r25, Z+1	; 0x01
    1c22:	89 2b       	or	r24, r25
    1c24:	a1 f6       	brne	.-88     	; 0x1bce <.L47>

00001c26 <.LM143>:
    1c26:	2b c0       	rjmp	.+86     	; 0x1c7e <.L48>

00001c28 <.L70>:
    1c28:	8e 01       	movw	r16, r28
    1c2a:	0e 5b       	subi	r16, 0xBE	; 190
    1c2c:	1f 4f       	sbci	r17, 0xFF	; 255
    1c2e:	ce 01       	movw	r24, r28
    1c30:	ce 96       	adiw	r24, 0x3e	; 62
    1c32:	fc 01       	movw	r30, r24
    1c34:	60 81       	ld	r22, Z
    1c36:	71 81       	ldd	r23, Z+1	; 0x01
    1c38:	82 81       	ldd	r24, Z+2	; 0x02
    1c3a:	93 81       	ldd	r25, Z+3	; 0x03
    1c3c:	0e 94 6a 11 	call	0x22d4	; 0x22d4 <__fixunssfsi>
    1c40:	dc 01       	movw	r26, r24
    1c42:	cb 01       	movw	r24, r22
    1c44:	f8 01       	movw	r30, r16
    1c46:	91 83       	std	Z+1, r25	; 0x01
    1c48:	80 83       	st	Z, r24

00001c4a <.L43>:
    1c4a:	ce 01       	movw	r24, r28
    1c4c:	8a 5b       	subi	r24, 0xBA	; 186
    1c4e:	9f 4f       	sbci	r25, 0xFF	; 255
    1c50:	9e 01       	movw	r18, r28
    1c52:	2e 5b       	subi	r18, 0xBE	; 190
    1c54:	3f 4f       	sbci	r19, 0xFF	; 255
    1c56:	f9 01       	movw	r30, r18
    1c58:	20 81       	ld	r18, Z
    1c5a:	31 81       	ldd	r19, Z+1	; 0x01
    1c5c:	fc 01       	movw	r30, r24
    1c5e:	31 83       	std	Z+1, r19	; 0x01
    1c60:	20 83       	st	Z, r18

00001c62 <.LM145>:
    1c62:	ce 01       	movw	r24, r28
    1c64:	8a 5b       	subi	r24, 0xBA	; 186
    1c66:	9f 4f       	sbci	r25, 0xFF	; 255
    1c68:	fc 01       	movw	r30, r24
    1c6a:	80 81       	ld	r24, Z
    1c6c:	91 81       	ldd	r25, Z+1	; 0x01

00001c6e <.L1^B10>:
    1c6e:	01 97       	sbiw	r24, 0x01	; 1
    1c70:	f1 f7       	brne	.-4      	; 0x1c6e <.L1^B10>
    1c72:	9e 01       	movw	r18, r28
    1c74:	2a 5b       	subi	r18, 0xBA	; 186
    1c76:	3f 4f       	sbci	r19, 0xFF	; 255
    1c78:	f9 01       	movw	r30, r18
    1c7a:	91 83       	std	Z+1, r25	; 0x01
    1c7c:	80 83       	st	Z, r24

00001c7e <.L48>:
    1c7e:	80 e1       	ldi	r24, 0x10	; 16
    1c80:	0e 94 70 06 	call	0xce0	; 0xce0 <LCD_SendCommands>

00001c84 <.LM147>:
    1c84:	81 e0       	ldi	r24, 0x01	; 1
    1c86:	0e 94 70 06 	call	0xce0	; 0xce0 <LCD_SendCommands>

00001c8a <.LM148>:
    1c8a:	84 e6       	ldi	r24, 0x64	; 100
    1c8c:	90 e0       	ldi	r25, 0x00	; 0
    1c8e:	0e 94 19 09 	call	0x1232	; 0x1232 <LCD_String>

00001c92 <.L40>:
    1c92:	10 92 ac 00 	sts	0x00AC, r1	; 0x8000ac <flag>

00001c96 <.LM150>:
    1c96:	19 82       	std	Y+1, r1	; 0x01

00001c98 <.L20>:
    1c98:	80 91 ac 00 	lds	r24, 0x00AC	; 0x8000ac <flag>

00001c9c <.LM152>:
    1c9c:	88 23       	and	r24, r24
    1c9e:	09 f0       	breq	.+2      	; 0x1ca2 <.LM153>

00001ca0 <L0^A>:
    1ca0:	93 cd       	rjmp	.-1242   	; 0x17c8 <.L49>

00001ca2 <.LM153>:
    1ca2:	f8 cc       	rjmp	.-1552   	; 0x1694 <.L50>

00001ca4 <System_ON>:
    1ca4:	cf 93       	push	r28
    1ca6:	df 93       	push	r29
    1ca8:	cd b7       	in	r28, 0x3d	; 61
    1caa:	de b7       	in	r29, 0x3e	; 62

00001cac <.L80>:
    1cac:	80 91 ad 00 	lds	r24, 0x00AD	; 0x8000ad <flag1>

00001cb0 <.LM156>:
    1cb0:	88 23       	and	r24, r24
    1cb2:	09 f0       	breq	.+2      	; 0x1cb6 <.LM157>

00001cb4 <L0^A>:
    1cb4:	65 c0       	rjmp	.+202    	; 0x1d80 <.L72>

00001cb6 <.LM157>:
    1cb6:	80 91 ae 00 	lds	r24, 0x00AE	; 0x8000ae <temp>
    1cba:	90 91 af 00 	lds	r25, 0x00AF	; 0x8000af <temp+0x1>

00001cbe <.LM158>:
    1cbe:	4f 97       	sbiw	r24, 0x1f	; 31
    1cc0:	20 f0       	brcs	.+8      	; 0x1cca <.L73>

00001cc2 <.LM159>:
    1cc2:	88 e4       	ldi	r24, 0x48	; 72
    1cc4:	0e 94 c8 09 	call	0x1390	; 0x1390 <SPI_SendData>
    1cc8:	19 c0       	rjmp	.+50     	; 0x1cfc <.L74>

00001cca <.L73>:
    1cca:	80 91 ae 00 	lds	r24, 0x00AE	; 0x8000ae <temp>
    1cce:	90 91 af 00 	lds	r25, 0x00AF	; 0x8000af <temp+0x1>

00001cd2 <.LM161>:
    1cd2:	4e 97       	sbiw	r24, 0x1e	; 30
    1cd4:	50 f4       	brcc	.+20     	; 0x1cea <.L75>

00001cd6 <.LM162>:
    1cd6:	80 91 ae 00 	lds	r24, 0x00AE	; 0x8000ae <temp>
    1cda:	90 91 af 00 	lds	r25, 0x00AF	; 0x8000af <temp+0x1>

00001cde <.LM163>:
    1cde:	45 97       	sbiw	r24, 0x15	; 21
    1ce0:	20 f0       	brcs	.+8      	; 0x1cea <.L75>

00001ce2 <.LM164>:
    1ce2:	8d e4       	ldi	r24, 0x4D	; 77
    1ce4:	0e 94 c8 09 	call	0x1390	; 0x1390 <SPI_SendData>
    1ce8:	09 c0       	rjmp	.+18     	; 0x1cfc <.L74>

00001cea <.L75>:
    1cea:	80 91 ae 00 	lds	r24, 0x00AE	; 0x8000ae <temp>
    1cee:	90 91 af 00 	lds	r25, 0x00AF	; 0x8000af <temp+0x1>

00001cf2 <.LM166>:
    1cf2:	44 97       	sbiw	r24, 0x14	; 20
    1cf4:	18 f4       	brcc	.+6      	; 0x1cfc <.L74>

00001cf6 <.LM167>:
    1cf6:	8c e4       	ldi	r24, 0x4C	; 76
    1cf8:	0e 94 c8 09 	call	0x1390	; 0x1390 <SPI_SendData>

00001cfc <.L74>:
    1cfc:	20 91 ae 00 	lds	r18, 0x00AE	; 0x8000ae <temp>
    1d00:	30 91 af 00 	lds	r19, 0x00AF	; 0x8000af <temp+0x1>
    1d04:	80 91 aa 00 	lds	r24, 0x00AA	; 0x8000aa <temp_prev>
    1d08:	90 91 ab 00 	lds	r25, 0x00AB	; 0x8000ab <temp_prev+0x1>

00001d0c <.LM169>:
    1d0c:	28 17       	cp	r18, r24
    1d0e:	39 07       	cpc	r19, r25
    1d10:	c1 f0       	breq	.+48     	; 0x1d42 <.L76>

00001d12 <.LM170>:
    1d12:	80 e1       	ldi	r24, 0x10	; 16
    1d14:	0e 94 70 06 	call	0xce0	; 0xce0 <LCD_SendCommands>

00001d18 <.LM171>:
    1d18:	81 e0       	ldi	r24, 0x01	; 1
    1d1a:	0e 94 70 06 	call	0xce0	; 0xce0 <LCD_SendCommands>

00001d1e <.LM172>:
    1d1e:	83 e8       	ldi	r24, 0x83	; 131
    1d20:	90 e0       	ldi	r25, 0x00	; 0
    1d22:	0e 94 19 09 	call	0x1232	; 0x1232 <LCD_String>

00001d26 <.LM173>:
    1d26:	80 91 ae 00 	lds	r24, 0x00AE	; 0x8000ae <temp>
    1d2a:	90 91 af 00 	lds	r25, 0x00AF	; 0x8000af <temp+0x1>
    1d2e:	0e 94 a7 08 	call	0x114e	; 0x114e <LCD_SendNumbers>

00001d32 <.LM174>:
    1d32:	80 91 ae 00 	lds	r24, 0x00AE	; 0x8000ae <temp>
    1d36:	90 91 af 00 	lds	r25, 0x00AF	; 0x8000af <temp+0x1>
    1d3a:	90 93 ab 00 	sts	0x00AB, r25	; 0x8000ab <temp_prev+0x1>
    1d3e:	80 93 aa 00 	sts	0x00AA, r24	; 0x8000aa <temp_prev>

00001d42 <.L76>:
    1d42:	80 e0       	ldi	r24, 0x00	; 0
    1d44:	0e 94 90 00 	call	0x120	; 0x120 <ADC_Start>

00001d48 <.LM176>:
    1d48:	0e 94 c4 00 	call	0x188	; 0x188 <ADC_Result>

00001d4c <.LM177>:
    1d4c:	90 93 b1 00 	sts	0x00B1, r25	; 0x8000b1 <digital+0x1>
    1d50:	80 93 b0 00 	sts	0x00B0, r24	; 0x8000b0 <digital>

00001d54 <.LM178>:
    1d54:	80 91 b0 00 	lds	r24, 0x00B0	; 0x8000b0 <digital>
    1d58:	90 91 b1 00 	lds	r25, 0x00B1	; 0x8000b1 <digital+0x1>
    1d5c:	0e 94 d0 00 	call	0x1a0	; 0x1a0 <Analog_Value>

00001d60 <.LM179>:
    1d60:	9c 01       	movw	r18, r24
    1d62:	ad ec       	ldi	r26, 0xCD	; 205
    1d64:	bc ec       	ldi	r27, 0xCC	; 204
    1d66:	0e 94 4b 11 	call	0x2296	; 0x2296 <__umulhisi3>
    1d6a:	96 95       	lsr	r25
    1d6c:	87 95       	ror	r24
    1d6e:	96 95       	lsr	r25
    1d70:	87 95       	ror	r24
    1d72:	96 95       	lsr	r25
    1d74:	87 95       	ror	r24

00001d76 <.LM180>:
    1d76:	90 93 af 00 	sts	0x00AF, r25	; 0x8000af <temp+0x1>
    1d7a:	80 93 ae 00 	sts	0x00AE, r24	; 0x8000ae <temp>
    1d7e:	96 cf       	rjmp	.-212    	; 0x1cac <.L80>

00001d80 <.L72>:
    1d80:	80 91 ad 00 	lds	r24, 0x00AD	; 0x8000ad <flag1>

00001d84 <.LM182>:
    1d84:	81 30       	cpi	r24, 0x01	; 1
    1d86:	81 f4       	brne	.+32     	; 0x1da8 <.L78>

00001d88 <.LM183>:
    1d88:	80 e1       	ldi	r24, 0x10	; 16
    1d8a:	0e 94 70 06 	call	0xce0	; 0xce0 <LCD_SendCommands>

00001d8e <.LM184>:
    1d8e:	81 e0       	ldi	r24, 0x01	; 1
    1d90:	0e 94 70 06 	call	0xce0	; 0xce0 <LCD_SendCommands>

00001d94 <.LM185>:
    1d94:	84 e6       	ldi	r24, 0x64	; 100
    1d96:	90 e0       	ldi	r25, 0x00	; 0
    1d98:	0e 94 19 09 	call	0x1232	; 0x1232 <LCD_String>

00001d9c <.LM186>:
    1d9c:	8c e4       	ldi	r24, 0x4C	; 76
    1d9e:	0e 94 c8 09 	call	0x1390	; 0x1390 <SPI_SendData>

00001da2 <.LM187>:
    1da2:	10 92 ad 00 	sts	0x00AD, r1	; 0x8000ad <flag1>

00001da6 <.LM188>:
    1da6:	18 c0       	rjmp	.+48     	; 0x1dd8 <.L81>

00001da8 <.L78>:
    1da8:	80 91 ad 00 	lds	r24, 0x00AD	; 0x8000ad <flag1>

00001dac <.LM190>:
    1dac:	82 30       	cpi	r24, 0x02	; 2
    1dae:	09 f0       	breq	.+2      	; 0x1db2 <.LM191>

00001db0 <L0^A>:
    1db0:	7d cf       	rjmp	.-262    	; 0x1cac <.L80>

00001db2 <.LM191>:
    1db2:	80 e1       	ldi	r24, 0x10	; 16
    1db4:	0e 94 70 06 	call	0xce0	; 0xce0 <LCD_SendCommands>

00001db8 <.LM192>:
    1db8:	81 e0       	ldi	r24, 0x01	; 1
    1dba:	0e 94 70 06 	call	0xce0	; 0xce0 <LCD_SendCommands>

00001dbe <.LM193>:
    1dbe:	83 e8       	ldi	r24, 0x83	; 131
    1dc0:	90 e0       	ldi	r25, 0x00	; 0
    1dc2:	0e 94 19 09 	call	0x1232	; 0x1232 <LCD_String>

00001dc6 <.LM194>:
    1dc6:	80 91 ae 00 	lds	r24, 0x00AE	; 0x8000ae <temp>
    1dca:	90 91 af 00 	lds	r25, 0x00AF	; 0x8000af <temp+0x1>
    1dce:	0e 94 a7 08 	call	0x114e	; 0x114e <LCD_SendNumbers>

00001dd2 <.LM195>:
    1dd2:	10 92 ad 00 	sts	0x00AD, r1	; 0x8000ad <flag1>

00001dd6 <.LM196>:
    1dd6:	6a cf       	rjmp	.-300    	; 0x1cac <.L80>

00001dd8 <.L81>:
    1dd8:	df 91       	pop	r29
    1dda:	cf 91       	pop	r28
    1ddc:	08 95       	ret

00001dde <__vector_1>:
    1dde:	1f 92       	push	r1
    1de0:	0f 92       	push	r0
    1de2:	0f b6       	in	r0, 0x3f	; 63
    1de4:	0f 92       	push	r0
    1de6:	11 24       	eor	r1, r1
    1de8:	0f 93       	push	r16
    1dea:	1f 93       	push	r17
    1dec:	2f 93       	push	r18
    1dee:	3f 93       	push	r19
    1df0:	4f 93       	push	r20
    1df2:	5f 93       	push	r21
    1df4:	6f 93       	push	r22
    1df6:	7f 93       	push	r23
    1df8:	8f 93       	push	r24
    1dfa:	9f 93       	push	r25
    1dfc:	af 93       	push	r26
    1dfe:	bf 93       	push	r27
    1e00:	ef 93       	push	r30
    1e02:	ff 93       	push	r31
    1e04:	cf 93       	push	r28
    1e06:	df 93       	push	r29
    1e08:	cd b7       	in	r28, 0x3d	; 61
    1e0a:	de b7       	in	r29, 0x3e	; 62
    1e0c:	63 97       	sbiw	r28, 0x13	; 19
    1e0e:	de bf       	out	0x3e, r29	; 62
    1e10:	cd bf       	out	0x3d, r28	; 61

00001e12 <.LM199>:
    1e12:	19 82       	std	Y+1, r1	; 0x01

00001e14 <.LM200>:
    1e14:	41 e0       	ldi	r20, 0x01	; 1
    1e16:	62 e0       	ldi	r22, 0x02	; 2
    1e18:	81 e0       	ldi	r24, 0x01	; 1
    1e1a:	0e 94 f3 01 	call	0x3e6	; 0x3e6 <SET_Value>

00001e1e <.LM201>:
    1e1e:	80 e1       	ldi	r24, 0x10	; 16
    1e20:	0e 94 70 06 	call	0xce0	; 0xce0 <LCD_SendCommands>

00001e24 <.LM202>:
    1e24:	81 e0       	ldi	r24, 0x01	; 1
    1e26:	0e 94 70 06 	call	0xce0	; 0xce0 <LCD_SendCommands>

00001e2a <.LM203>:
    1e2a:	8c e9       	ldi	r24, 0x9C	; 156
    1e2c:	90 e0       	ldi	r25, 0x00	; 0
    1e2e:	0e 94 19 09 	call	0x1232	; 0x1232 <LCD_String>

00001e32 <.L96>:
    1e32:	89 81       	ldd	r24, Y+1	; 0x01
    1e34:	08 2f       	mov	r16, r24
    1e36:	10 e0       	ldi	r17, 0x00	; 0

00001e38 <.LM205>:
    1e38:	0e 94 4c 0a 	call	0x1498	; 0x1498 <USART_Receive>
    1e3c:	28 2f       	mov	r18, r24

00001e3e <.LM206>:
    1e3e:	ce 01       	movw	r24, r28
    1e40:	40 96       	adiw	r24, 0x10	; 16
    1e42:	80 0f       	add	r24, r16
    1e44:	91 1f       	adc	r25, r17
    1e46:	fc 01       	movw	r30, r24
    1e48:	20 83       	st	Z, r18

00001e4a <.LM207>:
    1e4a:	89 81       	ldd	r24, Y+1	; 0x01
    1e4c:	88 23       	and	r24, r24
    1e4e:	81 f4       	brne	.+32     	; 0x1e70 <.L83>

00001e50 <.LM208>:
    1e50:	89 81       	ldd	r24, Y+1	; 0x01
    1e52:	88 2f       	mov	r24, r24
    1e54:	90 e0       	ldi	r25, 0x00	; 0
    1e56:	9e 01       	movw	r18, r28
    1e58:	20 5f       	subi	r18, 0xF0	; 240
    1e5a:	3f 4f       	sbci	r19, 0xFF	; 255
    1e5c:	82 0f       	add	r24, r18
    1e5e:	93 1f       	adc	r25, r19
    1e60:	fc 01       	movw	r30, r24
    1e62:	80 81       	ld	r24, Z
    1e64:	0e 94 94 08 	call	0x1128	; 0x1128 <LCD_SendData_4BitMode>

00001e68 <.LM209>:
    1e68:	89 81       	ldd	r24, Y+1	; 0x01
    1e6a:	8f 5f       	subi	r24, 0xFF	; 255
    1e6c:	89 83       	std	Y+1, r24	; 0x01
    1e6e:	26 c0       	rjmp	.+76     	; 0x1ebc <.L84>

00001e70 <.L83>:
    1e70:	89 81       	ldd	r24, Y+1	; 0x01
    1e72:	88 2f       	mov	r24, r24
    1e74:	90 e0       	ldi	r25, 0x00	; 0
    1e76:	01 97       	sbiw	r24, 0x01	; 1

00001e78 <.LM211>:
    1e78:	9e 01       	movw	r18, r28
    1e7a:	20 5f       	subi	r18, 0xF0	; 240
    1e7c:	3f 4f       	sbci	r19, 0xFF	; 255
    1e7e:	82 0f       	add	r24, r18
    1e80:	93 1f       	adc	r25, r19
    1e82:	fc 01       	movw	r30, r24
    1e84:	40 81       	ld	r20, Z

00001e86 <.LM212>:
    1e86:	89 81       	ldd	r24, Y+1	; 0x01
    1e88:	88 2f       	mov	r24, r24
    1e8a:	90 e0       	ldi	r25, 0x00	; 0
    1e8c:	9e 01       	movw	r18, r28
    1e8e:	20 5f       	subi	r18, 0xF0	; 240
    1e90:	3f 4f       	sbci	r19, 0xFF	; 255
    1e92:	82 0f       	add	r24, r18
    1e94:	93 1f       	adc	r25, r19
    1e96:	fc 01       	movw	r30, r24
    1e98:	80 81       	ld	r24, Z

00001e9a <.LM213>:
    1e9a:	48 17       	cp	r20, r24
    1e9c:	79 f0       	breq	.+30     	; 0x1ebc <.L84>

00001e9e <.LM214>:
    1e9e:	89 81       	ldd	r24, Y+1	; 0x01
    1ea0:	88 2f       	mov	r24, r24
    1ea2:	90 e0       	ldi	r25, 0x00	; 0
    1ea4:	9e 01       	movw	r18, r28
    1ea6:	20 5f       	subi	r18, 0xF0	; 240
    1ea8:	3f 4f       	sbci	r19, 0xFF	; 255
    1eaa:	82 0f       	add	r24, r18
    1eac:	93 1f       	adc	r25, r19
    1eae:	fc 01       	movw	r30, r24
    1eb0:	80 81       	ld	r24, Z
    1eb2:	0e 94 94 08 	call	0x1128	; 0x1128 <LCD_SendData_4BitMode>

00001eb6 <.LM215>:
    1eb6:	89 81       	ldd	r24, Y+1	; 0x01
    1eb8:	8f 5f       	subi	r24, 0xFF	; 255
    1eba:	89 83       	std	Y+1, r24	; 0x01

00001ebc <.L84>:
    1ebc:	89 81       	ldd	r24, Y+1	; 0x01
    1ebe:	84 30       	cpi	r24, 0x04	; 4
    1ec0:	09 f0       	breq	.+2      	; 0x1ec4 <.LM217>

00001ec2 <L0^A>:
    1ec2:	b7 cf       	rjmp	.-146    	; 0x1e32 <.L96>

00001ec4 <.LM217>:
    1ec4:	98 89       	ldd	r25, Y+16	; 0x10

00001ec6 <.LM218>:
    1ec6:	80 91 60 00 	lds	r24, 0x0060	; 0x800060 <code>

00001eca <.LM219>:
    1eca:	98 17       	cp	r25, r24
    1ecc:	c1 f4       	brne	.+48     	; 0x1efe <.L86>

00001ece <.LM220>:
    1ece:	99 89       	ldd	r25, Y+17	; 0x11

00001ed0 <.LM221>:
    1ed0:	80 91 61 00 	lds	r24, 0x0061	; 0x800061 <code+0x1>

00001ed4 <.LM222>:
    1ed4:	98 17       	cp	r25, r24
    1ed6:	99 f4       	brne	.+38     	; 0x1efe <.L86>

00001ed8 <.LM223>:
    1ed8:	9a 89       	ldd	r25, Y+18	; 0x12

00001eda <.LM224>:
    1eda:	80 91 62 00 	lds	r24, 0x0062	; 0x800062 <code+0x2>

00001ede <.LM225>:
    1ede:	98 17       	cp	r25, r24
    1ee0:	71 f4       	brne	.+28     	; 0x1efe <.L86>

00001ee2 <.LM226>:
    1ee2:	9b 89       	ldd	r25, Y+19	; 0x13

00001ee4 <.LM227>:
    1ee4:	80 91 63 00 	lds	r24, 0x0063	; 0x800063 <code+0x3>

00001ee8 <.LM228>:
    1ee8:	98 17       	cp	r25, r24
    1eea:	49 f4       	brne	.+18     	; 0x1efe <.L86>

00001eec <.LM229>:
    1eec:	40 e0       	ldi	r20, 0x00	; 0
    1eee:	62 e0       	ldi	r22, 0x02	; 2
    1ef0:	81 e0       	ldi	r24, 0x01	; 1
    1ef2:	0e 94 f3 01 	call	0x3e6	; 0x3e6 <SET_Value>

00001ef6 <.LM230>:
    1ef6:	82 e0       	ldi	r24, 0x02	; 2
    1ef8:	80 93 ad 00 	sts	0x00AD, r24	; 0x8000ad <flag1>

00001efc <.LM231>:
    1efc:	88 c0       	rjmp	.+272    	; 0x200e <.L99>

00001efe <.L86>:
    1efe:	80 e1       	ldi	r24, 0x10	; 16
    1f00:	0e 94 70 06 	call	0xce0	; 0xce0 <LCD_SendCommands>

00001f04 <.LM233>:
    1f04:	81 e0       	ldi	r24, 0x01	; 1
    1f06:	0e 94 70 06 	call	0xce0	; 0xce0 <LCD_SendCommands>

00001f0a <.LM234>:
    1f0a:	81 e9       	ldi	r24, 0x91	; 145
    1f0c:	90 e0       	ldi	r25, 0x00	; 0
    1f0e:	0e 94 19 09 	call	0x1232	; 0x1232 <LCD_String>
    1f12:	80 e0       	ldi	r24, 0x00	; 0
    1f14:	90 e0       	ldi	r25, 0x00	; 0
    1f16:	aa ef       	ldi	r26, 0xFA	; 250
    1f18:	b4 e4       	ldi	r27, 0x44	; 68
    1f1a:	8a 83       	std	Y+2, r24	; 0x02
    1f1c:	9b 83       	std	Y+3, r25	; 0x03
    1f1e:	ac 83       	std	Y+4, r26	; 0x04
    1f20:	bd 83       	std	Y+5, r27	; 0x05

00001f22 <.LM235>:
    1f22:	20 e0       	ldi	r18, 0x00	; 0
    1f24:	30 e0       	ldi	r19, 0x00	; 0
    1f26:	4a ef       	ldi	r20, 0xFA	; 250
    1f28:	54 e4       	ldi	r21, 0x44	; 68
    1f2a:	6a 81       	ldd	r22, Y+2	; 0x02
    1f2c:	7b 81       	ldd	r23, Y+3	; 0x03
    1f2e:	8c 81       	ldd	r24, Y+4	; 0x04
    1f30:	9d 81       	ldd	r25, Y+5	; 0x05
    1f32:	0e 94 eb 11 	call	0x23d6	; 0x23d6 <__mulsf3>
    1f36:	dc 01       	movw	r26, r24
    1f38:	cb 01       	movw	r24, r22
    1f3a:	8e 83       	std	Y+6, r24	; 0x06
    1f3c:	9f 83       	std	Y+7, r25	; 0x07
    1f3e:	a8 87       	std	Y+8, r26	; 0x08
    1f40:	b9 87       	std	Y+9, r27	; 0x09

00001f42 <.LM236>:
    1f42:	20 e0       	ldi	r18, 0x00	; 0
    1f44:	30 e0       	ldi	r19, 0x00	; 0
    1f46:	40 e8       	ldi	r20, 0x80	; 128
    1f48:	5f e3       	ldi	r21, 0x3F	; 63
    1f4a:	6e 81       	ldd	r22, Y+6	; 0x06
    1f4c:	7f 81       	ldd	r23, Y+7	; 0x07
    1f4e:	88 85       	ldd	r24, Y+8	; 0x08
    1f50:	99 85       	ldd	r25, Y+9	; 0x09
    1f52:	0e 94 65 11 	call	0x22ca	; 0x22ca <__cmpsf2>
    1f56:	88 23       	and	r24, r24
    1f58:	2c f4       	brge	.+10     	; 0x1f64 <.L100>

00001f5a <.LM237>:
    1f5a:	81 e0       	ldi	r24, 0x01	; 1
    1f5c:	90 e0       	ldi	r25, 0x00	; 0
    1f5e:	9b 87       	std	Y+11, r25	; 0x0b
    1f60:	8a 87       	std	Y+10, r24	; 0x0a
    1f62:	3f c0       	rjmp	.+126    	; 0x1fe2 <.L90>

00001f64 <.L100>:
    1f64:	20 e0       	ldi	r18, 0x00	; 0
    1f66:	3f ef       	ldi	r19, 0xFF	; 255
    1f68:	4f e7       	ldi	r20, 0x7F	; 127
    1f6a:	57 e4       	ldi	r21, 0x47	; 71
    1f6c:	6e 81       	ldd	r22, Y+6	; 0x06
    1f6e:	7f 81       	ldd	r23, Y+7	; 0x07
    1f70:	88 85       	ldd	r24, Y+8	; 0x08
    1f72:	99 85       	ldd	r25, Y+9	; 0x09
    1f74:	0e 94 e6 11 	call	0x23cc	; 0x23cc <__gesf2>
    1f78:	18 16       	cp	r1, r24
    1f7a:	4c f5       	brge	.+82     	; 0x1fce <.L101>

00001f7c <.LM239>:
    1f7c:	20 e0       	ldi	r18, 0x00	; 0
    1f7e:	30 e0       	ldi	r19, 0x00	; 0
    1f80:	40 e2       	ldi	r20, 0x20	; 32
    1f82:	51 e4       	ldi	r21, 0x41	; 65
    1f84:	6a 81       	ldd	r22, Y+2	; 0x02
    1f86:	7b 81       	ldd	r23, Y+3	; 0x03
    1f88:	8c 81       	ldd	r24, Y+4	; 0x04
    1f8a:	9d 81       	ldd	r25, Y+5	; 0x05
    1f8c:	0e 94 eb 11 	call	0x23d6	; 0x23d6 <__mulsf3>
    1f90:	dc 01       	movw	r26, r24
    1f92:	cb 01       	movw	r24, r22

00001f94 <.LM240>:
    1f94:	bc 01       	movw	r22, r24
    1f96:	cd 01       	movw	r24, r26
    1f98:	0e 94 6a 11 	call	0x22d4	; 0x22d4 <__fixunssfsi>
    1f9c:	dc 01       	movw	r26, r24
    1f9e:	cb 01       	movw	r24, r22
    1fa0:	9b 87       	std	Y+11, r25	; 0x0b
    1fa2:	8a 87       	std	Y+10, r24	; 0x0a
    1fa4:	0f c0       	rjmp	.+30     	; 0x1fc4 <.L93>

00001fa6 <.L94>:
    1fa6:	88 ec       	ldi	r24, 0xC8	; 200
    1fa8:	90 e0       	ldi	r25, 0x00	; 0
    1faa:	9d 87       	std	Y+13, r25	; 0x0d
    1fac:	8c 87       	std	Y+12, r24	; 0x0c

00001fae <.LM241>:
    1fae:	8c 85       	ldd	r24, Y+12	; 0x0c
    1fb0:	9d 85       	ldd	r25, Y+13	; 0x0d

00001fb2 <.L1^B11>:
    1fb2:	01 97       	sbiw	r24, 0x01	; 1
    1fb4:	f1 f7       	brne	.-4      	; 0x1fb2 <.L1^B11>
    1fb6:	9d 87       	std	Y+13, r25	; 0x0d
    1fb8:	8c 87       	std	Y+12, r24	; 0x0c

00001fba <.LM242>:
    1fba:	8a 85       	ldd	r24, Y+10	; 0x0a
    1fbc:	9b 85       	ldd	r25, Y+11	; 0x0b
    1fbe:	01 97       	sbiw	r24, 0x01	; 1
    1fc0:	9b 87       	std	Y+11, r25	; 0x0b
    1fc2:	8a 87       	std	Y+10, r24	; 0x0a

00001fc4 <.L93>:
    1fc4:	8a 85       	ldd	r24, Y+10	; 0x0a
    1fc6:	9b 85       	ldd	r25, Y+11	; 0x0b
    1fc8:	89 2b       	or	r24, r25
    1fca:	69 f7       	brne	.-38     	; 0x1fa6 <.L94>

00001fcc <.LM244>:
    1fcc:	14 c0       	rjmp	.+40     	; 0x1ff6 <.L95>

00001fce <.L101>:
    1fce:	6e 81       	ldd	r22, Y+6	; 0x06
    1fd0:	7f 81       	ldd	r23, Y+7	; 0x07
    1fd2:	88 85       	ldd	r24, Y+8	; 0x08
    1fd4:	99 85       	ldd	r25, Y+9	; 0x09
    1fd6:	0e 94 6a 11 	call	0x22d4	; 0x22d4 <__fixunssfsi>
    1fda:	dc 01       	movw	r26, r24
    1fdc:	cb 01       	movw	r24, r22
    1fde:	9b 87       	std	Y+11, r25	; 0x0b
    1fe0:	8a 87       	std	Y+10, r24	; 0x0a

00001fe2 <.L90>:
    1fe2:	8a 85       	ldd	r24, Y+10	; 0x0a
    1fe4:	9b 85       	ldd	r25, Y+11	; 0x0b
    1fe6:	9f 87       	std	Y+15, r25	; 0x0f
    1fe8:	8e 87       	std	Y+14, r24	; 0x0e

00001fea <.LM246>:
    1fea:	8e 85       	ldd	r24, Y+14	; 0x0e
    1fec:	9f 85       	ldd	r25, Y+15	; 0x0f

00001fee <.L1^B12>:
    1fee:	01 97       	sbiw	r24, 0x01	; 1
    1ff0:	f1 f7       	brne	.-4      	; 0x1fee <.L1^B12>
    1ff2:	9f 87       	std	Y+15, r25	; 0x0f
    1ff4:	8e 87       	std	Y+14, r24	; 0x0e

00001ff6 <.L95>:
    1ff6:	80 e1       	ldi	r24, 0x10	; 16
    1ff8:	0e 94 70 06 	call	0xce0	; 0xce0 <LCD_SendCommands>

00001ffc <.LM248>:
    1ffc:	81 e0       	ldi	r24, 0x01	; 1
    1ffe:	0e 94 70 06 	call	0xce0	; 0xce0 <LCD_SendCommands>

00002002 <.LM249>:
    2002:	8c e9       	ldi	r24, 0x9C	; 156
    2004:	90 e0       	ldi	r25, 0x00	; 0
    2006:	0e 94 19 09 	call	0x1232	; 0x1232 <LCD_String>

0000200a <.LM250>:
    200a:	19 82       	std	Y+1, r1	; 0x01

0000200c <.LM251>:
    200c:	12 cf       	rjmp	.-476    	; 0x1e32 <.L96>

0000200e <.L99>:
    200e:	63 96       	adiw	r28, 0x13	; 19
    2010:	0f b6       	in	r0, 0x3f	; 63
    2012:	f8 94       	cli
    2014:	de bf       	out	0x3e, r29	; 62
    2016:	0f be       	out	0x3f, r0	; 63
    2018:	cd bf       	out	0x3d, r28	; 61
    201a:	df 91       	pop	r29
    201c:	cf 91       	pop	r28
    201e:	ff 91       	pop	r31
    2020:	ef 91       	pop	r30
    2022:	bf 91       	pop	r27
    2024:	af 91       	pop	r26
    2026:	9f 91       	pop	r25
    2028:	8f 91       	pop	r24
    202a:	7f 91       	pop	r23
    202c:	6f 91       	pop	r22
    202e:	5f 91       	pop	r21
    2030:	4f 91       	pop	r20
    2032:	3f 91       	pop	r19
    2034:	2f 91       	pop	r18
    2036:	1f 91       	pop	r17
    2038:	0f 91       	pop	r16
    203a:	0f 90       	pop	r0
    203c:	0f be       	out	0x3f, r0	; 63
    203e:	0f 90       	pop	r0
    2040:	1f 90       	pop	r1
    2042:	18 95       	reti

00002044 <__vector_2>:
    2044:	1f 92       	push	r1
    2046:	0f 92       	push	r0
    2048:	0f b6       	in	r0, 0x3f	; 63
    204a:	0f 92       	push	r0
    204c:	11 24       	eor	r1, r1
    204e:	0f 93       	push	r16
    2050:	1f 93       	push	r17
    2052:	2f 93       	push	r18
    2054:	3f 93       	push	r19
    2056:	4f 93       	push	r20
    2058:	5f 93       	push	r21
    205a:	6f 93       	push	r22
    205c:	7f 93       	push	r23
    205e:	8f 93       	push	r24
    2060:	9f 93       	push	r25
    2062:	af 93       	push	r26
    2064:	bf 93       	push	r27
    2066:	ef 93       	push	r30
    2068:	ff 93       	push	r31
    206a:	cf 93       	push	r28
    206c:	df 93       	push	r29
    206e:	cd b7       	in	r28, 0x3d	; 61
    2070:	de b7       	in	r29, 0x3e	; 62
    2072:	63 97       	sbiw	r28, 0x13	; 19
    2074:	de bf       	out	0x3e, r29	; 62
    2076:	cd bf       	out	0x3d, r28	; 61

00002078 <.LM254>:
    2078:	19 82       	std	Y+1, r1	; 0x01

0000207a <.LM255>:
    207a:	80 e1       	ldi	r24, 0x10	; 16
    207c:	0e 94 70 06 	call	0xce0	; 0xce0 <LCD_SendCommands>

00002080 <.LM256>:
    2080:	81 e0       	ldi	r24, 0x01	; 1
    2082:	0e 94 70 06 	call	0xce0	; 0xce0 <LCD_SendCommands>

00002086 <.LM257>:
    2086:	8c e9       	ldi	r24, 0x9C	; 156
    2088:	90 e0       	ldi	r25, 0x00	; 0
    208a:	0e 94 19 09 	call	0x1232	; 0x1232 <LCD_String>

0000208e <.L116>:
    208e:	89 81       	ldd	r24, Y+1	; 0x01
    2090:	08 2f       	mov	r16, r24
    2092:	10 e0       	ldi	r17, 0x00	; 0

00002094 <.LM259>:
    2094:	0e 94 4c 0a 	call	0x1498	; 0x1498 <USART_Receive>
    2098:	28 2f       	mov	r18, r24

0000209a <.LM260>:
    209a:	ce 01       	movw	r24, r28
    209c:	40 96       	adiw	r24, 0x10	; 16
    209e:	80 0f       	add	r24, r16
    20a0:	91 1f       	adc	r25, r17
    20a2:	fc 01       	movw	r30, r24
    20a4:	20 83       	st	Z, r18

000020a6 <.LM261>:
    20a6:	89 81       	ldd	r24, Y+1	; 0x01
    20a8:	88 23       	and	r24, r24
    20aa:	81 f4       	brne	.+32     	; 0x20cc <.L103>

000020ac <.LM262>:
    20ac:	89 81       	ldd	r24, Y+1	; 0x01
    20ae:	88 2f       	mov	r24, r24
    20b0:	90 e0       	ldi	r25, 0x00	; 0
    20b2:	9e 01       	movw	r18, r28
    20b4:	20 5f       	subi	r18, 0xF0	; 240
    20b6:	3f 4f       	sbci	r19, 0xFF	; 255
    20b8:	82 0f       	add	r24, r18
    20ba:	93 1f       	adc	r25, r19
    20bc:	fc 01       	movw	r30, r24
    20be:	80 81       	ld	r24, Z
    20c0:	0e 94 94 08 	call	0x1128	; 0x1128 <LCD_SendData_4BitMode>

000020c4 <.LM263>:
    20c4:	89 81       	ldd	r24, Y+1	; 0x01
    20c6:	8f 5f       	subi	r24, 0xFF	; 255
    20c8:	89 83       	std	Y+1, r24	; 0x01
    20ca:	26 c0       	rjmp	.+76     	; 0x2118 <.L104>

000020cc <.L103>:
    20cc:	89 81       	ldd	r24, Y+1	; 0x01
    20ce:	88 2f       	mov	r24, r24
    20d0:	90 e0       	ldi	r25, 0x00	; 0
    20d2:	01 97       	sbiw	r24, 0x01	; 1

000020d4 <.LM265>:
    20d4:	9e 01       	movw	r18, r28
    20d6:	20 5f       	subi	r18, 0xF0	; 240
    20d8:	3f 4f       	sbci	r19, 0xFF	; 255
    20da:	82 0f       	add	r24, r18
    20dc:	93 1f       	adc	r25, r19
    20de:	fc 01       	movw	r30, r24
    20e0:	40 81       	ld	r20, Z

000020e2 <.LM266>:
    20e2:	89 81       	ldd	r24, Y+1	; 0x01
    20e4:	88 2f       	mov	r24, r24
    20e6:	90 e0       	ldi	r25, 0x00	; 0
    20e8:	9e 01       	movw	r18, r28
    20ea:	20 5f       	subi	r18, 0xF0	; 240
    20ec:	3f 4f       	sbci	r19, 0xFF	; 255
    20ee:	82 0f       	add	r24, r18
    20f0:	93 1f       	adc	r25, r19
    20f2:	fc 01       	movw	r30, r24
    20f4:	80 81       	ld	r24, Z

000020f6 <.LM267>:
    20f6:	48 17       	cp	r20, r24
    20f8:	79 f0       	breq	.+30     	; 0x2118 <.L104>

000020fa <.LM268>:
    20fa:	89 81       	ldd	r24, Y+1	; 0x01
    20fc:	88 2f       	mov	r24, r24
    20fe:	90 e0       	ldi	r25, 0x00	; 0
    2100:	9e 01       	movw	r18, r28
    2102:	20 5f       	subi	r18, 0xF0	; 240
    2104:	3f 4f       	sbci	r19, 0xFF	; 255
    2106:	82 0f       	add	r24, r18
    2108:	93 1f       	adc	r25, r19
    210a:	fc 01       	movw	r30, r24
    210c:	80 81       	ld	r24, Z
    210e:	0e 94 94 08 	call	0x1128	; 0x1128 <LCD_SendData_4BitMode>

00002112 <.LM269>:
    2112:	89 81       	ldd	r24, Y+1	; 0x01
    2114:	8f 5f       	subi	r24, 0xFF	; 255
    2116:	89 83       	std	Y+1, r24	; 0x01

00002118 <.L104>:
    2118:	89 81       	ldd	r24, Y+1	; 0x01
    211a:	84 30       	cpi	r24, 0x04	; 4
    211c:	09 f0       	breq	.+2      	; 0x2120 <.LM271>

0000211e <L0^A>:
    211e:	b7 cf       	rjmp	.-146    	; 0x208e <.L116>

00002120 <.LM271>:
    2120:	98 89       	ldd	r25, Y+16	; 0x10

00002122 <.LM272>:
    2122:	80 91 60 00 	lds	r24, 0x0060	; 0x800060 <code>

00002126 <.LM273>:
    2126:	98 17       	cp	r25, r24
    2128:	99 f4       	brne	.+38     	; 0x2150 <.L106>

0000212a <.LM274>:
    212a:	99 89       	ldd	r25, Y+17	; 0x11

0000212c <.LM275>:
    212c:	80 91 61 00 	lds	r24, 0x0061	; 0x800061 <code+0x1>

00002130 <.LM276>:
    2130:	98 17       	cp	r25, r24
    2132:	71 f4       	brne	.+28     	; 0x2150 <.L106>

00002134 <.LM277>:
    2134:	9a 89       	ldd	r25, Y+18	; 0x12

00002136 <.LM278>:
    2136:	80 91 62 00 	lds	r24, 0x0062	; 0x800062 <code+0x2>

0000213a <.LM279>:
    213a:	98 17       	cp	r25, r24
    213c:	49 f4       	brne	.+18     	; 0x2150 <.L106>

0000213e <.LM280>:
    213e:	9b 89       	ldd	r25, Y+19	; 0x13

00002140 <.LM281>:
    2140:	80 91 63 00 	lds	r24, 0x0063	; 0x800063 <code+0x3>

00002144 <.LM282>:
    2144:	98 17       	cp	r25, r24
    2146:	21 f4       	brne	.+8      	; 0x2150 <.L106>

00002148 <.LM283>:
    2148:	81 e0       	ldi	r24, 0x01	; 1
    214a:	80 93 ad 00 	sts	0x00AD, r24	; 0x8000ad <flag1>

0000214e <.LM284>:
    214e:	88 c0       	rjmp	.+272    	; 0x2260 <.L119>

00002150 <.L106>:
    2150:	80 e1       	ldi	r24, 0x10	; 16
    2152:	0e 94 70 06 	call	0xce0	; 0xce0 <LCD_SendCommands>

00002156 <.LM286>:
    2156:	81 e0       	ldi	r24, 0x01	; 1
    2158:	0e 94 70 06 	call	0xce0	; 0xce0 <LCD_SendCommands>

0000215c <.LM287>:
    215c:	81 e9       	ldi	r24, 0x91	; 145
    215e:	90 e0       	ldi	r25, 0x00	; 0
    2160:	0e 94 19 09 	call	0x1232	; 0x1232 <LCD_String>
    2164:	80 e0       	ldi	r24, 0x00	; 0
    2166:	90 e0       	ldi	r25, 0x00	; 0
    2168:	aa ef       	ldi	r26, 0xFA	; 250
    216a:	b4 e4       	ldi	r27, 0x44	; 68
    216c:	8a 83       	std	Y+2, r24	; 0x02
    216e:	9b 83       	std	Y+3, r25	; 0x03
    2170:	ac 83       	std	Y+4, r26	; 0x04
    2172:	bd 83       	std	Y+5, r27	; 0x05

00002174 <.LM288>:
    2174:	20 e0       	ldi	r18, 0x00	; 0
    2176:	30 e0       	ldi	r19, 0x00	; 0
    2178:	4a ef       	ldi	r20, 0xFA	; 250
    217a:	54 e4       	ldi	r21, 0x44	; 68
    217c:	6a 81       	ldd	r22, Y+2	; 0x02
    217e:	7b 81       	ldd	r23, Y+3	; 0x03
    2180:	8c 81       	ldd	r24, Y+4	; 0x04
    2182:	9d 81       	ldd	r25, Y+5	; 0x05
    2184:	0e 94 eb 11 	call	0x23d6	; 0x23d6 <__mulsf3>
    2188:	dc 01       	movw	r26, r24
    218a:	cb 01       	movw	r24, r22
    218c:	8e 83       	std	Y+6, r24	; 0x06
    218e:	9f 83       	std	Y+7, r25	; 0x07
    2190:	a8 87       	std	Y+8, r26	; 0x08
    2192:	b9 87       	std	Y+9, r27	; 0x09

00002194 <.LM289>:
    2194:	20 e0       	ldi	r18, 0x00	; 0
    2196:	30 e0       	ldi	r19, 0x00	; 0
    2198:	40 e8       	ldi	r20, 0x80	; 128
    219a:	5f e3       	ldi	r21, 0x3F	; 63
    219c:	6e 81       	ldd	r22, Y+6	; 0x06
    219e:	7f 81       	ldd	r23, Y+7	; 0x07
    21a0:	88 85       	ldd	r24, Y+8	; 0x08
    21a2:	99 85       	ldd	r25, Y+9	; 0x09
    21a4:	0e 94 65 11 	call	0x22ca	; 0x22ca <__cmpsf2>
    21a8:	88 23       	and	r24, r24
    21aa:	2c f4       	brge	.+10     	; 0x21b6 <.L120>

000021ac <.LM290>:
    21ac:	81 e0       	ldi	r24, 0x01	; 1
    21ae:	90 e0       	ldi	r25, 0x00	; 0
    21b0:	9b 87       	std	Y+11, r25	; 0x0b
    21b2:	8a 87       	std	Y+10, r24	; 0x0a
    21b4:	3f c0       	rjmp	.+126    	; 0x2234 <.L110>

000021b6 <.L120>:
    21b6:	20 e0       	ldi	r18, 0x00	; 0
    21b8:	3f ef       	ldi	r19, 0xFF	; 255
    21ba:	4f e7       	ldi	r20, 0x7F	; 127
    21bc:	57 e4       	ldi	r21, 0x47	; 71
    21be:	6e 81       	ldd	r22, Y+6	; 0x06
    21c0:	7f 81       	ldd	r23, Y+7	; 0x07
    21c2:	88 85       	ldd	r24, Y+8	; 0x08
    21c4:	99 85       	ldd	r25, Y+9	; 0x09
    21c6:	0e 94 e6 11 	call	0x23cc	; 0x23cc <__gesf2>
    21ca:	18 16       	cp	r1, r24
    21cc:	4c f5       	brge	.+82     	; 0x2220 <.L121>

000021ce <.LM292>:
    21ce:	20 e0       	ldi	r18, 0x00	; 0
    21d0:	30 e0       	ldi	r19, 0x00	; 0
    21d2:	40 e2       	ldi	r20, 0x20	; 32
    21d4:	51 e4       	ldi	r21, 0x41	; 65
    21d6:	6a 81       	ldd	r22, Y+2	; 0x02
    21d8:	7b 81       	ldd	r23, Y+3	; 0x03
    21da:	8c 81       	ldd	r24, Y+4	; 0x04
    21dc:	9d 81       	ldd	r25, Y+5	; 0x05
    21de:	0e 94 eb 11 	call	0x23d6	; 0x23d6 <__mulsf3>
    21e2:	dc 01       	movw	r26, r24
    21e4:	cb 01       	movw	r24, r22

000021e6 <.LM293>:
    21e6:	bc 01       	movw	r22, r24
    21e8:	cd 01       	movw	r24, r26
    21ea:	0e 94 6a 11 	call	0x22d4	; 0x22d4 <__fixunssfsi>
    21ee:	dc 01       	movw	r26, r24
    21f0:	cb 01       	movw	r24, r22
    21f2:	9b 87       	std	Y+11, r25	; 0x0b
    21f4:	8a 87       	std	Y+10, r24	; 0x0a
    21f6:	0f c0       	rjmp	.+30     	; 0x2216 <.L113>

000021f8 <.L114>:
    21f8:	88 ec       	ldi	r24, 0xC8	; 200
    21fa:	90 e0       	ldi	r25, 0x00	; 0
    21fc:	9d 87       	std	Y+13, r25	; 0x0d
    21fe:	8c 87       	std	Y+12, r24	; 0x0c

00002200 <.LM294>:
    2200:	8c 85       	ldd	r24, Y+12	; 0x0c
    2202:	9d 85       	ldd	r25, Y+13	; 0x0d

00002204 <.L1^B13>:
    2204:	01 97       	sbiw	r24, 0x01	; 1
    2206:	f1 f7       	brne	.-4      	; 0x2204 <.L1^B13>
    2208:	9d 87       	std	Y+13, r25	; 0x0d
    220a:	8c 87       	std	Y+12, r24	; 0x0c

0000220c <.LM295>:
    220c:	8a 85       	ldd	r24, Y+10	; 0x0a
    220e:	9b 85       	ldd	r25, Y+11	; 0x0b
    2210:	01 97       	sbiw	r24, 0x01	; 1
    2212:	9b 87       	std	Y+11, r25	; 0x0b
    2214:	8a 87       	std	Y+10, r24	; 0x0a

00002216 <.L113>:
    2216:	8a 85       	ldd	r24, Y+10	; 0x0a
    2218:	9b 85       	ldd	r25, Y+11	; 0x0b
    221a:	89 2b       	or	r24, r25
    221c:	69 f7       	brne	.-38     	; 0x21f8 <.L114>

0000221e <.LM297>:
    221e:	14 c0       	rjmp	.+40     	; 0x2248 <.L115>

00002220 <.L121>:
    2220:	6e 81       	ldd	r22, Y+6	; 0x06
    2222:	7f 81       	ldd	r23, Y+7	; 0x07
    2224:	88 85       	ldd	r24, Y+8	; 0x08
    2226:	99 85       	ldd	r25, Y+9	; 0x09
    2228:	0e 94 6a 11 	call	0x22d4	; 0x22d4 <__fixunssfsi>
    222c:	dc 01       	movw	r26, r24
    222e:	cb 01       	movw	r24, r22
    2230:	9b 87       	std	Y+11, r25	; 0x0b
    2232:	8a 87       	std	Y+10, r24	; 0x0a

00002234 <.L110>:
    2234:	8a 85       	ldd	r24, Y+10	; 0x0a
    2236:	9b 85       	ldd	r25, Y+11	; 0x0b
    2238:	9f 87       	std	Y+15, r25	; 0x0f
    223a:	8e 87       	std	Y+14, r24	; 0x0e

0000223c <.LM299>:
    223c:	8e 85       	ldd	r24, Y+14	; 0x0e
    223e:	9f 85       	ldd	r25, Y+15	; 0x0f

00002240 <.L1^B14>:
    2240:	01 97       	sbiw	r24, 0x01	; 1
    2242:	f1 f7       	brne	.-4      	; 0x2240 <.L1^B14>
    2244:	9f 87       	std	Y+15, r25	; 0x0f
    2246:	8e 87       	std	Y+14, r24	; 0x0e

00002248 <.L115>:
    2248:	80 e1       	ldi	r24, 0x10	; 16
    224a:	0e 94 70 06 	call	0xce0	; 0xce0 <LCD_SendCommands>

0000224e <.LM301>:
    224e:	81 e0       	ldi	r24, 0x01	; 1
    2250:	0e 94 70 06 	call	0xce0	; 0xce0 <LCD_SendCommands>

00002254 <.LM302>:
    2254:	8c e9       	ldi	r24, 0x9C	; 156
    2256:	90 e0       	ldi	r25, 0x00	; 0
    2258:	0e 94 19 09 	call	0x1232	; 0x1232 <LCD_String>

0000225c <.LM303>:
    225c:	19 82       	std	Y+1, r1	; 0x01

0000225e <.LM304>:
    225e:	17 cf       	rjmp	.-466    	; 0x208e <.L116>

00002260 <.L119>:
    2260:	63 96       	adiw	r28, 0x13	; 19
    2262:	0f b6       	in	r0, 0x3f	; 63
    2264:	f8 94       	cli
    2266:	de bf       	out	0x3e, r29	; 62
    2268:	0f be       	out	0x3f, r0	; 63
    226a:	cd bf       	out	0x3d, r28	; 61
    226c:	df 91       	pop	r29
    226e:	cf 91       	pop	r28
    2270:	ff 91       	pop	r31
    2272:	ef 91       	pop	r30
    2274:	bf 91       	pop	r27
    2276:	af 91       	pop	r26
    2278:	9f 91       	pop	r25
    227a:	8f 91       	pop	r24
    227c:	7f 91       	pop	r23
    227e:	6f 91       	pop	r22
    2280:	5f 91       	pop	r21
    2282:	4f 91       	pop	r20
    2284:	3f 91       	pop	r19
    2286:	2f 91       	pop	r18
    2288:	1f 91       	pop	r17
    228a:	0f 91       	pop	r16
    228c:	0f 90       	pop	r0
    228e:	0f be       	out	0x3f, r0	; 63
    2290:	0f 90       	pop	r0
    2292:	1f 90       	pop	r1
    2294:	18 95       	reti

00002296 <__umulhisi3>:
    2296:	a2 9f       	mul	r26, r18
    2298:	b0 01       	movw	r22, r0
    229a:	b3 9f       	mul	r27, r19
    229c:	c0 01       	movw	r24, r0
    229e:	a3 9f       	mul	r26, r19
    22a0:	70 0d       	add	r23, r0
    22a2:	81 1d       	adc	r24, r1
    22a4:	11 24       	eor	r1, r1
    22a6:	91 1d       	adc	r25, r1
    22a8:	b2 9f       	mul	r27, r18
    22aa:	70 0d       	add	r23, r0
    22ac:	81 1d       	adc	r24, r1
    22ae:	11 24       	eor	r1, r1
    22b0:	91 1d       	adc	r25, r1
    22b2:	08 95       	ret

000022b4 <__muluhisi3>:
    22b4:	0e 94 4b 11 	call	0x2296	; 0x2296 <__umulhisi3>
    22b8:	a5 9f       	mul	r26, r21
    22ba:	90 0d       	add	r25, r0
    22bc:	b4 9f       	mul	r27, r20
    22be:	90 0d       	add	r25, r0
    22c0:	a4 9f       	mul	r26, r20
    22c2:	80 0d       	add	r24, r0
    22c4:	91 1d       	adc	r25, r1
    22c6:	11 24       	eor	r1, r1
    22c8:	08 95       	ret

000022ca <__cmpsf2>:
    22ca:	0e 94 99 11 	call	0x2332	; 0x2332 <__fp_cmp>
    22ce:	08 f4       	brcc	.+2      	; 0x22d2 <__cmpsf2+0x8>
    22d0:	81 e0       	ldi	r24, 0x01	; 1
    22d2:	08 95       	ret

000022d4 <__fixunssfsi>:
    22d4:	0e 94 c5 11 	call	0x238a	; 0x238a <__fp_splitA>
    22d8:	88 f0       	brcs	.+34     	; 0x22fc <__fixunssfsi+0x28>
    22da:	9f 57       	subi	r25, 0x7F	; 127
    22dc:	98 f0       	brcs	.+38     	; 0x2304 <__fixunssfsi+0x30>
    22de:	b9 2f       	mov	r27, r25
    22e0:	99 27       	eor	r25, r25
    22e2:	b7 51       	subi	r27, 0x17	; 23
    22e4:	b0 f0       	brcs	.+44     	; 0x2312 <__fixunssfsi+0x3e>
    22e6:	e1 f0       	breq	.+56     	; 0x2320 <__fixunssfsi+0x4c>
    22e8:	66 0f       	add	r22, r22
    22ea:	77 1f       	adc	r23, r23
    22ec:	88 1f       	adc	r24, r24
    22ee:	99 1f       	adc	r25, r25
    22f0:	1a f0       	brmi	.+6      	; 0x22f8 <__fixunssfsi+0x24>
    22f2:	ba 95       	dec	r27
    22f4:	c9 f7       	brne	.-14     	; 0x22e8 <__fixunssfsi+0x14>
    22f6:	14 c0       	rjmp	.+40     	; 0x2320 <__fixunssfsi+0x4c>
    22f8:	b1 30       	cpi	r27, 0x01	; 1
    22fa:	91 f0       	breq	.+36     	; 0x2320 <__fixunssfsi+0x4c>
    22fc:	0e 94 df 11 	call	0x23be	; 0x23be <__fp_zero>
    2300:	b1 e0       	ldi	r27, 0x01	; 1
    2302:	08 95       	ret
    2304:	0c 94 df 11 	jmp	0x23be	; 0x23be <__fp_zero>
    2308:	67 2f       	mov	r22, r23
    230a:	78 2f       	mov	r23, r24
    230c:	88 27       	eor	r24, r24
    230e:	b8 5f       	subi	r27, 0xF8	; 248
    2310:	39 f0       	breq	.+14     	; 0x2320 <__fixunssfsi+0x4c>
    2312:	b9 3f       	cpi	r27, 0xF9	; 249
    2314:	cc f3       	brlt	.-14     	; 0x2308 <__fixunssfsi+0x34>
    2316:	86 95       	lsr	r24
    2318:	77 95       	ror	r23
    231a:	67 95       	ror	r22
    231c:	b3 95       	inc	r27
    231e:	d9 f7       	brne	.-10     	; 0x2316 <__fixunssfsi+0x42>
    2320:	3e f4       	brtc	.+14     	; 0x2330 <__fixunssfsi+0x5c>
    2322:	90 95       	com	r25
    2324:	80 95       	com	r24
    2326:	70 95       	com	r23
    2328:	61 95       	neg	r22
    232a:	7f 4f       	sbci	r23, 0xFF	; 255
    232c:	8f 4f       	sbci	r24, 0xFF	; 255
    232e:	9f 4f       	sbci	r25, 0xFF	; 255
    2330:	08 95       	ret

00002332 <__fp_cmp>:
    2332:	99 0f       	add	r25, r25
    2334:	00 08       	sbc	r0, r0
    2336:	55 0f       	add	r21, r21
    2338:	aa 0b       	sbc	r26, r26
    233a:	e0 e8       	ldi	r30, 0x80	; 128
    233c:	fe ef       	ldi	r31, 0xFE	; 254
    233e:	16 16       	cp	r1, r22
    2340:	17 06       	cpc	r1, r23
    2342:	e8 07       	cpc	r30, r24
    2344:	f9 07       	cpc	r31, r25
    2346:	c0 f0       	brcs	.+48     	; 0x2378 <__fp_cmp+0x46>
    2348:	12 16       	cp	r1, r18
    234a:	13 06       	cpc	r1, r19
    234c:	e4 07       	cpc	r30, r20
    234e:	f5 07       	cpc	r31, r21
    2350:	98 f0       	brcs	.+38     	; 0x2378 <__fp_cmp+0x46>
    2352:	62 1b       	sub	r22, r18
    2354:	73 0b       	sbc	r23, r19
    2356:	84 0b       	sbc	r24, r20
    2358:	95 0b       	sbc	r25, r21
    235a:	39 f4       	brne	.+14     	; 0x236a <__fp_cmp+0x38>
    235c:	0a 26       	eor	r0, r26
    235e:	61 f0       	breq	.+24     	; 0x2378 <__fp_cmp+0x46>
    2360:	23 2b       	or	r18, r19
    2362:	24 2b       	or	r18, r20
    2364:	25 2b       	or	r18, r21
    2366:	21 f4       	brne	.+8      	; 0x2370 <__fp_cmp+0x3e>
    2368:	08 95       	ret
    236a:	0a 26       	eor	r0, r26
    236c:	09 f4       	brne	.+2      	; 0x2370 <__fp_cmp+0x3e>
    236e:	a1 40       	sbci	r26, 0x01	; 1
    2370:	a6 95       	lsr	r26
    2372:	8f ef       	ldi	r24, 0xFF	; 255
    2374:	81 1d       	adc	r24, r1
    2376:	81 1d       	adc	r24, r1
    2378:	08 95       	ret

0000237a <__fp_split3>:
    237a:	57 fd       	sbrc	r21, 7
    237c:	90 58       	subi	r25, 0x80	; 128
    237e:	44 0f       	add	r20, r20
    2380:	55 1f       	adc	r21, r21
    2382:	59 f0       	breq	.+22     	; 0x239a <__fp_splitA+0x10>
    2384:	5f 3f       	cpi	r21, 0xFF	; 255
    2386:	71 f0       	breq	.+28     	; 0x23a4 <__fp_splitA+0x1a>
    2388:	47 95       	ror	r20

0000238a <__fp_splitA>:
    238a:	88 0f       	add	r24, r24
    238c:	97 fb       	bst	r25, 7
    238e:	99 1f       	adc	r25, r25
    2390:	61 f0       	breq	.+24     	; 0x23aa <__fp_splitA+0x20>
    2392:	9f 3f       	cpi	r25, 0xFF	; 255
    2394:	79 f0       	breq	.+30     	; 0x23b4 <__fp_splitA+0x2a>
    2396:	87 95       	ror	r24
    2398:	08 95       	ret
    239a:	12 16       	cp	r1, r18
    239c:	13 06       	cpc	r1, r19
    239e:	14 06       	cpc	r1, r20
    23a0:	55 1f       	adc	r21, r21
    23a2:	f2 cf       	rjmp	.-28     	; 0x2388 <__fp_split3+0xe>
    23a4:	46 95       	lsr	r20
    23a6:	f1 df       	rcall	.-30     	; 0x238a <__fp_splitA>
    23a8:	08 c0       	rjmp	.+16     	; 0x23ba <__fp_splitA+0x30>
    23aa:	16 16       	cp	r1, r22
    23ac:	17 06       	cpc	r1, r23
    23ae:	18 06       	cpc	r1, r24
    23b0:	99 1f       	adc	r25, r25
    23b2:	f1 cf       	rjmp	.-30     	; 0x2396 <__fp_splitA+0xc>
    23b4:	86 95       	lsr	r24
    23b6:	71 05       	cpc	r23, r1
    23b8:	61 05       	cpc	r22, r1
    23ba:	08 94       	sec
    23bc:	08 95       	ret

000023be <__fp_zero>:
    23be:	e8 94       	clt

000023c0 <__fp_szero>:
    23c0:	bb 27       	eor	r27, r27
    23c2:	66 27       	eor	r22, r22
    23c4:	77 27       	eor	r23, r23
    23c6:	cb 01       	movw	r24, r22
    23c8:	97 f9       	bld	r25, 7
    23ca:	08 95       	ret

000023cc <__gesf2>:
    23cc:	0e 94 99 11 	call	0x2332	; 0x2332 <__fp_cmp>
    23d0:	08 f4       	brcc	.+2      	; 0x23d4 <__gesf2+0x8>
    23d2:	8f ef       	ldi	r24, 0xFF	; 255
    23d4:	08 95       	ret

000023d6 <__mulsf3>:
    23d6:	0e 94 fe 11 	call	0x23fc	; 0x23fc <__mulsf3x>
    23da:	0c 94 6f 12 	jmp	0x24de	; 0x24de <__fp_round>
    23de:	0e 94 61 12 	call	0x24c2	; 0x24c2 <__fp_pscA>
    23e2:	38 f0       	brcs	.+14     	; 0x23f2 <__mulsf3+0x1c>
    23e4:	0e 94 68 12 	call	0x24d0	; 0x24d0 <__fp_pscB>
    23e8:	20 f0       	brcs	.+8      	; 0x23f2 <__mulsf3+0x1c>
    23ea:	95 23       	and	r25, r21
    23ec:	11 f0       	breq	.+4      	; 0x23f2 <__mulsf3+0x1c>
    23ee:	0c 94 58 12 	jmp	0x24b0	; 0x24b0 <__fp_inf>
    23f2:	0c 94 5e 12 	jmp	0x24bc	; 0x24bc <__fp_nan>
    23f6:	11 24       	eor	r1, r1
    23f8:	0c 94 e0 11 	jmp	0x23c0	; 0x23c0 <__fp_szero>

000023fc <__mulsf3x>:
    23fc:	0e 94 bd 11 	call	0x237a	; 0x237a <__fp_split3>
    2400:	70 f3       	brcs	.-36     	; 0x23de <__mulsf3+0x8>

00002402 <__mulsf3_pse>:
    2402:	95 9f       	mul	r25, r21
    2404:	c1 f3       	breq	.-16     	; 0x23f6 <__mulsf3+0x20>
    2406:	95 0f       	add	r25, r21
    2408:	50 e0       	ldi	r21, 0x00	; 0
    240a:	55 1f       	adc	r21, r21
    240c:	62 9f       	mul	r22, r18
    240e:	f0 01       	movw	r30, r0
    2410:	72 9f       	mul	r23, r18
    2412:	bb 27       	eor	r27, r27
    2414:	f0 0d       	add	r31, r0
    2416:	b1 1d       	adc	r27, r1
    2418:	63 9f       	mul	r22, r19
    241a:	aa 27       	eor	r26, r26
    241c:	f0 0d       	add	r31, r0
    241e:	b1 1d       	adc	r27, r1
    2420:	aa 1f       	adc	r26, r26
    2422:	64 9f       	mul	r22, r20
    2424:	66 27       	eor	r22, r22
    2426:	b0 0d       	add	r27, r0
    2428:	a1 1d       	adc	r26, r1
    242a:	66 1f       	adc	r22, r22
    242c:	82 9f       	mul	r24, r18
    242e:	22 27       	eor	r18, r18
    2430:	b0 0d       	add	r27, r0
    2432:	a1 1d       	adc	r26, r1
    2434:	62 1f       	adc	r22, r18
    2436:	73 9f       	mul	r23, r19
    2438:	b0 0d       	add	r27, r0
    243a:	a1 1d       	adc	r26, r1
    243c:	62 1f       	adc	r22, r18
    243e:	83 9f       	mul	r24, r19
    2440:	a0 0d       	add	r26, r0
    2442:	61 1d       	adc	r22, r1
    2444:	22 1f       	adc	r18, r18
    2446:	74 9f       	mul	r23, r20
    2448:	33 27       	eor	r19, r19
    244a:	a0 0d       	add	r26, r0
    244c:	61 1d       	adc	r22, r1
    244e:	23 1f       	adc	r18, r19
    2450:	84 9f       	mul	r24, r20
    2452:	60 0d       	add	r22, r0
    2454:	21 1d       	adc	r18, r1
    2456:	82 2f       	mov	r24, r18
    2458:	76 2f       	mov	r23, r22
    245a:	6a 2f       	mov	r22, r26
    245c:	11 24       	eor	r1, r1
    245e:	9f 57       	subi	r25, 0x7F	; 127
    2460:	50 40       	sbci	r21, 0x00	; 0
    2462:	9a f0       	brmi	.+38     	; 0x248a <__mulsf3_pse+0x88>
    2464:	f1 f0       	breq	.+60     	; 0x24a2 <__mulsf3_pse+0xa0>
    2466:	88 23       	and	r24, r24
    2468:	4a f0       	brmi	.+18     	; 0x247c <__mulsf3_pse+0x7a>
    246a:	ee 0f       	add	r30, r30
    246c:	ff 1f       	adc	r31, r31
    246e:	bb 1f       	adc	r27, r27
    2470:	66 1f       	adc	r22, r22
    2472:	77 1f       	adc	r23, r23
    2474:	88 1f       	adc	r24, r24
    2476:	91 50       	subi	r25, 0x01	; 1
    2478:	50 40       	sbci	r21, 0x00	; 0
    247a:	a9 f7       	brne	.-22     	; 0x2466 <__mulsf3_pse+0x64>
    247c:	9e 3f       	cpi	r25, 0xFE	; 254
    247e:	51 05       	cpc	r21, r1
    2480:	80 f0       	brcs	.+32     	; 0x24a2 <__mulsf3_pse+0xa0>
    2482:	0c 94 58 12 	jmp	0x24b0	; 0x24b0 <__fp_inf>
    2486:	0c 94 e0 11 	jmp	0x23c0	; 0x23c0 <__fp_szero>
    248a:	5f 3f       	cpi	r21, 0xFF	; 255
    248c:	e4 f3       	brlt	.-8      	; 0x2486 <__mulsf3_pse+0x84>
    248e:	98 3e       	cpi	r25, 0xE8	; 232
    2490:	d4 f3       	brlt	.-12     	; 0x2486 <__mulsf3_pse+0x84>
    2492:	86 95       	lsr	r24
    2494:	77 95       	ror	r23
    2496:	67 95       	ror	r22
    2498:	b7 95       	ror	r27
    249a:	f7 95       	ror	r31
    249c:	e7 95       	ror	r30
    249e:	9f 5f       	subi	r25, 0xFF	; 255
    24a0:	c1 f7       	brne	.-16     	; 0x2492 <__mulsf3_pse+0x90>
    24a2:	fe 2b       	or	r31, r30
    24a4:	88 0f       	add	r24, r24
    24a6:	91 1d       	adc	r25, r1
    24a8:	96 95       	lsr	r25
    24aa:	87 95       	ror	r24
    24ac:	97 f9       	bld	r25, 7
    24ae:	08 95       	ret

000024b0 <__fp_inf>:
    24b0:	97 f9       	bld	r25, 7
    24b2:	9f 67       	ori	r25, 0x7F	; 127
    24b4:	80 e8       	ldi	r24, 0x80	; 128
    24b6:	70 e0       	ldi	r23, 0x00	; 0
    24b8:	60 e0       	ldi	r22, 0x00	; 0
    24ba:	08 95       	ret

000024bc <__fp_nan>:
    24bc:	9f ef       	ldi	r25, 0xFF	; 255
    24be:	80 ec       	ldi	r24, 0xC0	; 192
    24c0:	08 95       	ret

000024c2 <__fp_pscA>:
    24c2:	00 24       	eor	r0, r0
    24c4:	0a 94       	dec	r0
    24c6:	16 16       	cp	r1, r22
    24c8:	17 06       	cpc	r1, r23
    24ca:	18 06       	cpc	r1, r24
    24cc:	09 06       	cpc	r0, r25
    24ce:	08 95       	ret

000024d0 <__fp_pscB>:
    24d0:	00 24       	eor	r0, r0
    24d2:	0a 94       	dec	r0
    24d4:	12 16       	cp	r1, r18
    24d6:	13 06       	cpc	r1, r19
    24d8:	14 06       	cpc	r1, r20
    24da:	05 06       	cpc	r0, r21
    24dc:	08 95       	ret

000024de <__fp_round>:
    24de:	09 2e       	mov	r0, r25
    24e0:	03 94       	inc	r0
    24e2:	00 0c       	add	r0, r0
    24e4:	11 f4       	brne	.+4      	; 0x24ea <__fp_round+0xc>
    24e6:	88 23       	and	r24, r24
    24e8:	52 f0       	brmi	.+20     	; 0x24fe <__fp_round+0x20>
    24ea:	bb 0f       	add	r27, r27
    24ec:	40 f4       	brcc	.+16     	; 0x24fe <__fp_round+0x20>
    24ee:	bf 2b       	or	r27, r31
    24f0:	11 f4       	brne	.+4      	; 0x24f6 <__fp_round+0x18>
    24f2:	60 ff       	sbrs	r22, 0
    24f4:	04 c0       	rjmp	.+8      	; 0x24fe <__fp_round+0x20>
    24f6:	6f 5f       	subi	r22, 0xFF	; 255
    24f8:	7f 4f       	sbci	r23, 0xFF	; 255
    24fa:	8f 4f       	sbci	r24, 0xFF	; 255
    24fc:	9f 4f       	sbci	r25, 0xFF	; 255
    24fe:	08 95       	ret

00002500 <_exit>:
    2500:	f8 94       	cli

00002502 <__stop_program>:
    2502:	ff cf       	rjmp	.-2      	; 0x2502 <__stop_program>
